
bomb:     file format elf64-x86-64
bomb
architecture: i386:x86-64, flags 0x00000112:
EXEC_P, HAS_SYMS, D_PAGED
start address 0x0000000000400d50

Program Header:
    PHDR off    0x0000000000000040 vaddr 0x0000000000400040 paddr 0x0000000000400040 align 2**3
         filesz 0x00000000000001f8 memsz 0x00000000000001f8 flags r-x
  INTERP off    0x0000000000000238 vaddr 0x0000000000400238 paddr 0x0000000000400238 align 2**0
         filesz 0x000000000000001c memsz 0x000000000000001c flags r--
    LOAD off    0x0000000000000000 vaddr 0x0000000000400000 paddr 0x0000000000400000 align 2**21
         filesz 0x00000000000036ac memsz 0x00000000000036ac flags r-x
    LOAD off    0x0000000000003e10 vaddr 0x0000000000603e10 paddr 0x0000000000603e10 align 2**21
         filesz 0x0000000000000d70 memsz 0x0000000000001440 flags rw-
 DYNAMIC off    0x0000000000003e28 vaddr 0x0000000000603e28 paddr 0x0000000000603e28 align 2**3
         filesz 0x00000000000001d0 memsz 0x00000000000001d0 flags rw-
    NOTE off    0x0000000000000254 vaddr 0x0000000000400254 paddr 0x0000000000400254 align 2**2
         filesz 0x0000000000000044 memsz 0x0000000000000044 flags r--
EH_FRAME off    0x000000000000304c vaddr 0x000000000040304c paddr 0x000000000040304c align 2**2
         filesz 0x0000000000000124 memsz 0x0000000000000124 flags r--
   STACK off    0x0000000000000000 vaddr 0x0000000000000000 paddr 0x0000000000000000 align 2**4
         filesz 0x0000000000000000 memsz 0x0000000000000000 flags rw-
   RELRO off    0x0000000000003e10 vaddr 0x0000000000603e10 paddr 0x0000000000603e10 align 2**0
         filesz 0x00000000000001f0 memsz 0x00000000000001f0 flags r--

Dynamic Section:
  NEEDED               libc.so.6
  INIT                 0x0000000000400b38
  FINI                 0x00000000004025e4
  INIT_ARRAY           0x0000000000603e10
  INIT_ARRAYSZ         0x0000000000000008
  FINI_ARRAY           0x0000000000603e18
  FINI_ARRAYSZ         0x0000000000000008
  GNU_HASH             0x0000000000400298
  STRTAB               0x00000000004005f8
  SYMTAB               0x00000000004002c8
  STRSZ                0x000000000000017e
  SYMENT               0x0000000000000018
  DEBUG                0x0000000000000000
  PLTGOT               0x0000000000604000
  PLTRELSZ             0x00000000000002b8
  PLTREL               0x0000000000000007
  JMPREL               0x0000000000400880
  RELA                 0x0000000000400820
  RELASZ               0x0000000000000060
  RELAENT              0x0000000000000018
  VERNEED              0x00000000004007c0
  VERNEEDNUM           0x0000000000000001
  VERSYM               0x0000000000400776

Version References:
  required from libc.so.6:
    0x0d696913 0x00 06 GLIBC_2.3
    0x0d696917 0x00 05 GLIBC_2.7
    0x09691974 0x00 04 GLIBC_2.3.4
    0x0d696914 0x00 03 GLIBC_2.4
    0x09691a75 0x00 02 GLIBC_2.2.5

Sections:
Idx Name          Size      VMA               LMA               File off  Algn
  0 .interp       0000001c  0000000000400238  0000000000400238  00000238  2**0
                  CONTENTS, ALLOC, LOAD, READONLY, DATA
  1 .note.ABI-tag 00000020  0000000000400254  0000000000400254  00000254  2**2
                  CONTENTS, ALLOC, LOAD, READONLY, DATA
  2 .note.gnu.build-id 00000024  0000000000400274  0000000000400274  00000274  2**2
                  CONTENTS, ALLOC, LOAD, READONLY, DATA
  3 .gnu.hash     00000030  0000000000400298  0000000000400298  00000298  2**3
                  CONTENTS, ALLOC, LOAD, READONLY, DATA
  4 .dynsym       00000330  00000000004002c8  00000000004002c8  000002c8  2**3
                  CONTENTS, ALLOC, LOAD, READONLY, DATA
  5 .dynstr       0000017e  00000000004005f8  00000000004005f8  000005f8  2**0
                  CONTENTS, ALLOC, LOAD, READONLY, DATA
  6 .gnu.version  00000044  0000000000400776  0000000000400776  00000776  2**1
                  CONTENTS, ALLOC, LOAD, READONLY, DATA
  7 .gnu.version_r 00000060  00000000004007c0  00000000004007c0  000007c0  2**3
                  CONTENTS, ALLOC, LOAD, READONLY, DATA
  8 .rela.dyn     00000060  0000000000400820  0000000000400820  00000820  2**3
                  CONTENTS, ALLOC, LOAD, READONLY, DATA
  9 .rela.plt     000002b8  0000000000400880  0000000000400880  00000880  2**3
                  CONTENTS, ALLOC, LOAD, READONLY, DATA
 10 .init         0000001a  0000000000400b38  0000000000400b38  00000b38  2**2
                  CONTENTS, ALLOC, LOAD, READONLY, CODE
 11 .plt          000001e0  0000000000400b60  0000000000400b60  00000b60  2**4
                  CONTENTS, ALLOC, LOAD, READONLY, CODE
 12 .plt.got      00000008  0000000000400d40  0000000000400d40  00000d40  2**3
                  CONTENTS, ALLOC, LOAD, READONLY, CODE
 13 .text         00001892  0000000000400d50  0000000000400d50  00000d50  2**4
                  CONTENTS, ALLOC, LOAD, READONLY, CODE
 14 .fini         00000009  00000000004025e4  00000000004025e4  000025e4  2**2
                  CONTENTS, ALLOC, LOAD, READONLY, CODE
 15 .rodata       00000a4b  0000000000402600  0000000000402600  00002600  2**5
                  CONTENTS, ALLOC, LOAD, READONLY, DATA
 16 .eh_frame_hdr 00000124  000000000040304c  000000000040304c  0000304c  2**2
                  CONTENTS, ALLOC, LOAD, READONLY, DATA
 17 .eh_frame     0000053c  0000000000403170  0000000000403170  00003170  2**3
                  CONTENTS, ALLOC, LOAD, READONLY, DATA
 18 .init_array   00000008  0000000000603e10  0000000000603e10  00003e10  2**3
                  CONTENTS, ALLOC, LOAD, DATA
 19 .fini_array   00000008  0000000000603e18  0000000000603e18  00003e18  2**3
                  CONTENTS, ALLOC, LOAD, DATA
 20 .jcr          00000008  0000000000603e20  0000000000603e20  00003e20  2**3
                  CONTENTS, ALLOC, LOAD, DATA
 21 .dynamic      000001d0  0000000000603e28  0000000000603e28  00003e28  2**3
                  CONTENTS, ALLOC, LOAD, DATA
 22 .got          00000008  0000000000603ff8  0000000000603ff8  00003ff8  2**3
                  CONTENTS, ALLOC, LOAD, DATA
 23 .got.plt      00000100  0000000000604000  0000000000604000  00004000  2**3
                  CONTENTS, ALLOC, LOAD, DATA
 24 .data         00000a80  0000000000604100  0000000000604100  00004100  2**5
                  CONTENTS, ALLOC, LOAD, DATA
 25 .bss          000006d0  0000000000604b80  0000000000604b80  00004b80  2**5
                  ALLOC
 26 .comment      00000034  0000000000000000  0000000000000000  00004b80  2**0
                  CONTENTS, READONLY
 27 .debug_aranges 00000030  0000000000000000  0000000000000000  00004bb4  2**0
                  CONTENTS, READONLY, DEBUGGING
 28 .debug_info   00000a45  0000000000000000  0000000000000000  00004be4  2**0
                  CONTENTS, READONLY, DEBUGGING
 29 .debug_abbrev 000001a9  0000000000000000  0000000000000000  00005629  2**0
                  CONTENTS, READONLY, DEBUGGING
 30 .debug_line   0000017f  0000000000000000  0000000000000000  000057d2  2**0
                  CONTENTS, READONLY, DEBUGGING
 31 .debug_str    0000031c  0000000000000000  0000000000000000  00005951  2**0
                  CONTENTS, READONLY, DEBUGGING
 32 .debug_loc    00000351  0000000000000000  0000000000000000  00005c6d  2**0
                  CONTENTS, READONLY, DEBUGGING
SYMBOL TABLE:
0000000000400238 l    d  .interp	0000000000000000              .interp
0000000000400254 l    d  .note.ABI-tag	0000000000000000              .note.ABI-tag
0000000000400274 l    d  .note.gnu.build-id	0000000000000000              .note.gnu.build-id
0000000000400298 l    d  .gnu.hash	0000000000000000              .gnu.hash
00000000004002c8 l    d  .dynsym	0000000000000000              .dynsym
00000000004005f8 l    d  .dynstr	0000000000000000              .dynstr
0000000000400776 l    d  .gnu.version	0000000000000000              .gnu.version
00000000004007c0 l    d  .gnu.version_r	0000000000000000              .gnu.version_r
0000000000400820 l    d  .rela.dyn	0000000000000000              .rela.dyn
0000000000400880 l    d  .rela.plt	0000000000000000              .rela.plt
0000000000400b38 l    d  .init	0000000000000000              .init
0000000000400b60 l    d  .plt	0000000000000000              .plt
0000000000400d40 l    d  .plt.got	0000000000000000              .plt.got
0000000000400d50 l    d  .text	0000000000000000              .text
00000000004025e4 l    d  .fini	0000000000000000              .fini
0000000000402600 l    d  .rodata	0000000000000000              .rodata
000000000040304c l    d  .eh_frame_hdr	0000000000000000              .eh_frame_hdr
0000000000403170 l    d  .eh_frame	0000000000000000              .eh_frame
0000000000603e10 l    d  .init_array	0000000000000000              .init_array
0000000000603e18 l    d  .fini_array	0000000000000000              .fini_array
0000000000603e20 l    d  .jcr	0000000000000000              .jcr
0000000000603e28 l    d  .dynamic	0000000000000000              .dynamic
0000000000603ff8 l    d  .got	0000000000000000              .got
0000000000604000 l    d  .got.plt	0000000000000000              .got.plt
0000000000604100 l    d  .data	0000000000000000              .data
0000000000604b80 l    d  .bss	0000000000000000              .bss
0000000000000000 l    d  .comment	0000000000000000              .comment
0000000000000000 l    d  .debug_aranges	0000000000000000              .debug_aranges
0000000000000000 l    d  .debug_info	0000000000000000              .debug_info
0000000000000000 l    d  .debug_abbrev	0000000000000000              .debug_abbrev
0000000000000000 l    d  .debug_line	0000000000000000              .debug_line
0000000000000000 l    d  .debug_str	0000000000000000              .debug_str
0000000000000000 l    d  .debug_loc	0000000000000000              .debug_loc
0000000000000000 l    df *ABS*	0000000000000000              crtstuff.c
0000000000603e20 l     O .jcr	0000000000000000              __JCR_LIST__
0000000000400d80 l     F .text	0000000000000000              deregister_tm_clones
0000000000400dc0 l     F .text	0000000000000000              register_tm_clones
0000000000400e00 l     F .text	0000000000000000              __do_global_dtors_aux
0000000000604ba8 l     O .bss	0000000000000001              completed.7594
0000000000603e18 l     O .fini_array	0000000000000000              __do_global_dtors_aux_fini_array_entry
0000000000400e20 l     F .text	0000000000000000              frame_dummy
0000000000603e10 l     O .init_array	0000000000000000              __frame_dummy_init_array_entry
0000000000000000 l    df *ABS*	0000000000000000              bomb.c
0000000000000000 l    df *ABS*	0000000000000000              phases.c
0000000000402860 l     O .rodata	0000000000000040              array.3586
0000000000000000 l    df *ABS*	0000000000000000              support.c
00000000004014a0 l     F .text	0000000000000056              sig_handler
0000000000000000 l    df *ABS*	0000000000000000              driverlib.c
0000000000401a09 l     F .text	00000000000000f2              rio_readlineb
0000000000000000 l    df *ABS*	0000000000000000              crtstuff.c
00000000004036a8 l     O .eh_frame	0000000000000000              __FRAME_END__
0000000000603e20 l     O .jcr	0000000000000000              __JCR_END__
0000000000000000 l    df *ABS*	0000000000000000              
0000000000603e18 l       .init_array	0000000000000000              __init_array_end
0000000000603e28 l     O .dynamic	0000000000000000              _DYNAMIC
0000000000603e10 l       .init_array	0000000000000000              __init_array_start
000000000040304c l       .eh_frame_hdr	0000000000000000              __GNU_EH_FRAME_HDR
0000000000604000 l     O .got.plt	0000000000000000              _GLOBAL_OFFSET_TABLE_
00000000004025e0 g     F .text	0000000000000002              __libc_csu_fini
00000000004016ca g     F .text	0000000000000041              skip
0000000000000000       F *UND*	0000000000000000              getenv@@GLIBC_2.2.5
00000000004019ab g     F .text	0000000000000030              phase_defused
0000000000604180 g     O .data	0000000000000018              n31
0000000000000000       F *UND*	0000000000000000              strcasecmp@@GLIBC_2.2.5
0000000000000000       F *UND*	0000000000000000              __errno_location@@GLIBC_2.2.5
0000000000000000  w      *UND*	0000000000000000              _ITM_deregisterTMCloneTable
0000000000604b80 g     O .bss	0000000000000008              stdout@@GLIBC_2.2.5
0000000000604100  w      .data	0000000000000000              data_start
0000000000604bc0 g     O .bss	0000000000000640              input_strings
0000000000000000       F *UND*	0000000000000000              strcpy@@GLIBC_2.2.5
00000000006041c0 g     O .data	0000000000000018              n33
0000000000000000       F *UND*	0000000000000000              puts@@GLIBC_2.2.5
0000000000604b90 g     O .bss	0000000000000008              stdin@@GLIBC_2.2.5
0000000000000000       F *UND*	0000000000000000              write@@GLIBC_2.2.5
0000000000604b80 g       .data	0000000000000000              _edata
0000000000604260 g     O .data	0000000000000018              n44
00000000006042a0 g     O .data	0000000000000018              n46
0000000000604220 g     O .data	0000000000000018              n42
00000000006042e0 g     O .data	0000000000000018              n48
00000000004025e4 g     F .fini	0000000000000000              _fini
0000000000000000       F *UND*	0000000000000000              __stack_chk_fail@@GLIBC_2.4
0000000000604bac g     O .bss	0000000000000004              num_input_strings
0000000000401143 g     F .text	000000000000008c              phase_5
000000000040168b g     F .text	0000000000000002              initialize_bomb_solve
0000000000401277 g     F .text	00000000000000a7              phase_7
000000000040168d g     F .text	000000000000003d              blank_line
0000000000401466 g     F .text	000000000000003a              phase_9
0000000000401afb g     F .text	00000000000007fc              submitr
000000000040104b g     F .text	000000000000008c              phase_3
0000000000400fd1 g     F .text	000000000000005e              phase_1
00000000004014f6 g     F .text	0000000000000025              invalid_phase
000000000040231f g     F .text	00000000000001d5              init_driver
0000000000000000       F *UND*	0000000000000000              alarm@@GLIBC_2.2.5
0000000000000000       F *UND*	0000000000000000              close@@GLIBC_2.2.5
0000000000604320 g     O .data	0000000000000010              node3
0000000000000000       F *UND*	0000000000000000              read@@GLIBC_2.2.5
0000000000000000       F *UND*	0000000000000000              __libc_start_main@@GLIBC_2.2.5
0000000000000000       F *UND*	0000000000000000              fgets@@GLIBC_2.2.5
0000000000401810 g     F .text	0000000000000036              explode_bomb
0000000000604300 g     O .data	0000000000000010              node1
0000000000604100 g       .data	0000000000000000              __data_start
0000000000000000       F *UND*	0000000000000000              signal@@GLIBC_2.2.5
0000000000000000       F *UND*	0000000000000000              gethostbyname@@GLIBC_2.2.5
0000000000604340 g     O .data	0000000000000010              node5
0000000000000000       F *UND*	0000000000000000              __memmove_chk@@GLIBC_2.3.4
0000000000000000  w      *UND*	0000000000000000              __gmon_start__
0000000000000000       F *UND*	0000000000000000              strtol@@GLIBC_2.2.5
0000000000604108 g     O .data	0000000000000000              .hidden __dso_handle
0000000000401428 g     F .text	000000000000003e              fun9
0000000000402600 g     O .rodata	0000000000000004              _IO_stdin_used
0000000000604160 g     O .data	0000000000000018              n22
0000000000604780 g     O .data	0000000000000400              host_table
0000000000604120 g     O .data	0000000000000018              n1
000000000040151b g     F .text	000000000000001e              string_length
0000000000402570 g     F .text	0000000000000065              __libc_csu_init
0000000000000000       F *UND*	0000000000000000              malloc@@GLIBC_2.2.5
0000000000000000       F *UND*	0000000000000000              fflush@@GLIBC_2.2.5
0000000000000000       F *UND*	0000000000000000              __isoc99_sscanf@@GLIBC_2.7
00000000006041e0 g     O .data	0000000000000018              n34
00000000006041a0 g     O .data	0000000000000018              n32
0000000000605250 g       .bss	0000000000000000              _end
0000000000400d50 g     F .text	000000000000002a              _start
0000000000604bb0 g     O .bss	0000000000000008              infile
00000000004019db g     F .text	000000000000002e              sigalrm_handler
00000000004022f7 g     F .text	0000000000000028              init_timeout
0000000000604b80 g       .bss	0000000000000000              __bss_start
0000000000604360 g     O .data	0000000000000400              userid
0000000000400e46 g     F .text	000000000000018b              main
0000000000000000       F *UND*	0000000000000000              __printf_chk@@GLIBC_2.3.4
00000000006042c0 g     O .data	0000000000000018              n47
0000000000604240 g     O .data	0000000000000018              n43
0000000000604200 g     O .data	0000000000000018              n41
0000000000401885 g     F .text	0000000000000126              read_line
0000000000604280 g     O .data	0000000000000018              n45
0000000000401539 g     F .text	0000000000000067              strings_not_equal
00000000004010d7 g     F .text	000000000000006c              phase_4
000000000040131e g     F .text	000000000000010a              phase_8
0000000000000000       F *UND*	0000000000000000              fopen@@GLIBC_2.2.5
000000000040120a g     F .text	000000000000006d              phase_6
0000000000605200 g     O .bss	0000000000000050              scratch
0000000000000000  w      *UND*	0000000000000000              _Jv_RegisterClasses
00000000004024f4 g     F .text	0000000000000074              driver_post
000000000040170b g     F .text	0000000000000105              send_msg
000000000040102f g     F .text	000000000000001c              phase_2
0000000000000000       F *UND*	0000000000000000              gethostname@@GLIBC_2.2.5
0000000000000000       F *UND*	0000000000000000              exit@@GLIBC_2.2.5
0000000000604760 g     O .data	0000000000000004              bomb_id
0000000000000000       F *UND*	0000000000000000              connect@@GLIBC_2.2.5
0000000000604b80 g     O .data	0000000000000000              .hidden __TMC_END__
0000000000000000       F *UND*	0000000000000000              __fprintf_chk@@GLIBC_2.3.4
0000000000000000  w      *UND*	0000000000000000              _ITM_registerTMCloneTable
0000000000604310 g     O .data	0000000000000010              node2
0000000000604330 g     O .data	0000000000000010              node4
0000000000000000       F *UND*	0000000000000000              sleep@@GLIBC_2.2.5
0000000000604350 g     O .data	0000000000000010              node6
0000000000400b38 g     F .init	0000000000000000              _init
0000000000401846 g     F .text	000000000000003f              read_six_numbers
0000000000604140 g     O .data	0000000000000018              n21
00000000004015a0 g     F .text	00000000000000eb              initialize_bomb
00000000004011cf g     F .text	000000000000003b              fun6
0000000000000000       F *UND*	0000000000000000              __ctype_b_loc@@GLIBC_2.3
0000000000604ba0 g     O .bss	0000000000000008              stderr@@GLIBC_2.2.5
0000000000000000       F *UND*	0000000000000000              __sprintf_chk@@GLIBC_2.3.4
0000000000000000       F *UND*	0000000000000000              socket@@GLIBC_2.2.5



Disassembly of section .init:

0000000000400b38 <_init>:
  400b38:	48 83 ec 08          	sub    $0x8,%rsp
  400b3c:	48 8b 05 b5 34 20 00 	mov    0x2034b5(%rip),%rax        # 603ff8 <__gmon_start__>
  400b43:	48 85 c0             	test   %rax,%rax
  400b46:	74 05                	je     400b4d <_init+0x15>
  400b48:	e8 f3 01 00 00       	callq  400d40 <__gmon_start__@plt>
  400b4d:	48 83 c4 08          	add    $0x8,%rsp
  400b51:	c3                   	retq   

Disassembly of section .plt:

0000000000400b60 <.plt>:
  400b60:	ff 35 a2 34 20 00    	pushq  0x2034a2(%rip)        # 604008 <_GLOBAL_OFFSET_TABLE_+0x8>
  400b66:	ff 25 a4 34 20 00    	jmpq   *0x2034a4(%rip)        # 604010 <_GLOBAL_OFFSET_TABLE_+0x10>
  400b6c:	0f 1f 40 00          	nopl   0x0(%rax)

0000000000400b70 <getenv@plt>:
  400b70:	ff 25 a2 34 20 00    	jmpq   *0x2034a2(%rip)        # 604018 <getenv@GLIBC_2.2.5>
  400b76:	68 00 00 00 00       	pushq  $0x0
  400b7b:	e9 e0 ff ff ff       	jmpq   400b60 <.plt>

0000000000400b80 <strcasecmp@plt>:
  400b80:	ff 25 9a 34 20 00    	jmpq   *0x20349a(%rip)        # 604020 <strcasecmp@GLIBC_2.2.5>
  400b86:	68 01 00 00 00       	pushq  $0x1
  400b8b:	e9 d0 ff ff ff       	jmpq   400b60 <.plt>

0000000000400b90 <__errno_location@plt>:
  400b90:	ff 25 92 34 20 00    	jmpq   *0x203492(%rip)        # 604028 <__errno_location@GLIBC_2.2.5>
  400b96:	68 02 00 00 00       	pushq  $0x2
  400b9b:	e9 c0 ff ff ff       	jmpq   400b60 <.plt>

0000000000400ba0 <strcpy@plt>:
  400ba0:	ff 25 8a 34 20 00    	jmpq   *0x20348a(%rip)        # 604030 <strcpy@GLIBC_2.2.5>
  400ba6:	68 03 00 00 00       	pushq  $0x3
  400bab:	e9 b0 ff ff ff       	jmpq   400b60 <.plt>

0000000000400bb0 <puts@plt>:
  400bb0:	ff 25 82 34 20 00    	jmpq   *0x203482(%rip)        # 604038 <puts@GLIBC_2.2.5>
  400bb6:	68 04 00 00 00       	pushq  $0x4
  400bbb:	e9 a0 ff ff ff       	jmpq   400b60 <.plt>

0000000000400bc0 <write@plt>:
  400bc0:	ff 25 7a 34 20 00    	jmpq   *0x20347a(%rip)        # 604040 <write@GLIBC_2.2.5>
  400bc6:	68 05 00 00 00       	pushq  $0x5
  400bcb:	e9 90 ff ff ff       	jmpq   400b60 <.plt>

0000000000400bd0 <__stack_chk_fail@plt>:
  400bd0:	ff 25 72 34 20 00    	jmpq   *0x203472(%rip)        # 604048 <__stack_chk_fail@GLIBC_2.4>
  400bd6:	68 06 00 00 00       	pushq  $0x6
  400bdb:	e9 80 ff ff ff       	jmpq   400b60 <.plt>

0000000000400be0 <alarm@plt>:
  400be0:	ff 25 6a 34 20 00    	jmpq   *0x20346a(%rip)        # 604050 <alarm@GLIBC_2.2.5>
  400be6:	68 07 00 00 00       	pushq  $0x7
  400beb:	e9 70 ff ff ff       	jmpq   400b60 <.plt>

0000000000400bf0 <close@plt>:
  400bf0:	ff 25 62 34 20 00    	jmpq   *0x203462(%rip)        # 604058 <close@GLIBC_2.2.5>
  400bf6:	68 08 00 00 00       	pushq  $0x8
  400bfb:	e9 60 ff ff ff       	jmpq   400b60 <.plt>

0000000000400c00 <read@plt>:
  400c00:	ff 25 5a 34 20 00    	jmpq   *0x20345a(%rip)        # 604060 <read@GLIBC_2.2.5>
  400c06:	68 09 00 00 00       	pushq  $0x9
  400c0b:	e9 50 ff ff ff       	jmpq   400b60 <.plt>

0000000000400c10 <__libc_start_main@plt>:
  400c10:	ff 25 52 34 20 00    	jmpq   *0x203452(%rip)        # 604068 <__libc_start_main@GLIBC_2.2.5>
  400c16:	68 0a 00 00 00       	pushq  $0xa
  400c1b:	e9 40 ff ff ff       	jmpq   400b60 <.plt>

0000000000400c20 <fgets@plt>:
  400c20:	ff 25 4a 34 20 00    	jmpq   *0x20344a(%rip)        # 604070 <fgets@GLIBC_2.2.5>
  400c26:	68 0b 00 00 00       	pushq  $0xb
  400c2b:	e9 30 ff ff ff       	jmpq   400b60 <.plt>

0000000000400c30 <signal@plt>:
  400c30:	ff 25 42 34 20 00    	jmpq   *0x203442(%rip)        # 604078 <signal@GLIBC_2.2.5>
  400c36:	68 0c 00 00 00       	pushq  $0xc
  400c3b:	e9 20 ff ff ff       	jmpq   400b60 <.plt>

0000000000400c40 <gethostbyname@plt>:
  400c40:	ff 25 3a 34 20 00    	jmpq   *0x20343a(%rip)        # 604080 <gethostbyname@GLIBC_2.2.5>
  400c46:	68 0d 00 00 00       	pushq  $0xd
  400c4b:	e9 10 ff ff ff       	jmpq   400b60 <.plt>

0000000000400c50 <__memmove_chk@plt>:
  400c50:	ff 25 32 34 20 00    	jmpq   *0x203432(%rip)        # 604088 <__memmove_chk@GLIBC_2.3.4>
  400c56:	68 0e 00 00 00       	pushq  $0xe
  400c5b:	e9 00 ff ff ff       	jmpq   400b60 <.plt>

0000000000400c60 <strtol@plt>:
  400c60:	ff 25 2a 34 20 00    	jmpq   *0x20342a(%rip)        # 604090 <strtol@GLIBC_2.2.5>
  400c66:	68 0f 00 00 00       	pushq  $0xf
  400c6b:	e9 f0 fe ff ff       	jmpq   400b60 <.plt>

0000000000400c70 <malloc@plt>:
  400c70:	ff 25 22 34 20 00    	jmpq   *0x203422(%rip)        # 604098 <malloc@GLIBC_2.2.5>
  400c76:	68 10 00 00 00       	pushq  $0x10
  400c7b:	e9 e0 fe ff ff       	jmpq   400b60 <.plt>

0000000000400c80 <fflush@plt>:
  400c80:	ff 25 1a 34 20 00    	jmpq   *0x20341a(%rip)        # 6040a0 <fflush@GLIBC_2.2.5>
  400c86:	68 11 00 00 00       	pushq  $0x11
  400c8b:	e9 d0 fe ff ff       	jmpq   400b60 <.plt>

0000000000400c90 <__isoc99_sscanf@plt>:
  400c90:	ff 25 12 34 20 00    	jmpq   *0x203412(%rip)        # 6040a8 <__isoc99_sscanf@GLIBC_2.7>
  400c96:	68 12 00 00 00       	pushq  $0x12
  400c9b:	e9 c0 fe ff ff       	jmpq   400b60 <.plt>

0000000000400ca0 <__printf_chk@plt>:
  400ca0:	ff 25 0a 34 20 00    	jmpq   *0x20340a(%rip)        # 6040b0 <__printf_chk@GLIBC_2.3.4>
  400ca6:	68 13 00 00 00       	pushq  $0x13
  400cab:	e9 b0 fe ff ff       	jmpq   400b60 <.plt>

0000000000400cb0 <fopen@plt>:
  400cb0:	ff 25 02 34 20 00    	jmpq   *0x203402(%rip)        # 6040b8 <fopen@GLIBC_2.2.5>
  400cb6:	68 14 00 00 00       	pushq  $0x14
  400cbb:	e9 a0 fe ff ff       	jmpq   400b60 <.plt>

0000000000400cc0 <gethostname@plt>:
  400cc0:	ff 25 fa 33 20 00    	jmpq   *0x2033fa(%rip)        # 6040c0 <gethostname@GLIBC_2.2.5>
  400cc6:	68 15 00 00 00       	pushq  $0x15
  400ccb:	e9 90 fe ff ff       	jmpq   400b60 <.plt>

0000000000400cd0 <exit@plt>:
  400cd0:	ff 25 f2 33 20 00    	jmpq   *0x2033f2(%rip)        # 6040c8 <exit@GLIBC_2.2.5>
  400cd6:	68 16 00 00 00       	pushq  $0x16
  400cdb:	e9 80 fe ff ff       	jmpq   400b60 <.plt>

0000000000400ce0 <connect@plt>:
  400ce0:	ff 25 ea 33 20 00    	jmpq   *0x2033ea(%rip)        # 6040d0 <connect@GLIBC_2.2.5>
  400ce6:	68 17 00 00 00       	pushq  $0x17
  400ceb:	e9 70 fe ff ff       	jmpq   400b60 <.plt>

0000000000400cf0 <__fprintf_chk@plt>:
  400cf0:	ff 25 e2 33 20 00    	jmpq   *0x2033e2(%rip)        # 6040d8 <__fprintf_chk@GLIBC_2.3.4>
  400cf6:	68 18 00 00 00       	pushq  $0x18
  400cfb:	e9 60 fe ff ff       	jmpq   400b60 <.plt>

0000000000400d00 <sleep@plt>:
  400d00:	ff 25 da 33 20 00    	jmpq   *0x2033da(%rip)        # 6040e0 <sleep@GLIBC_2.2.5>
  400d06:	68 19 00 00 00       	pushq  $0x19
  400d0b:	e9 50 fe ff ff       	jmpq   400b60 <.plt>

0000000000400d10 <__ctype_b_loc@plt>:
  400d10:	ff 25 d2 33 20 00    	jmpq   *0x2033d2(%rip)        # 6040e8 <__ctype_b_loc@GLIBC_2.3>
  400d16:	68 1a 00 00 00       	pushq  $0x1a
  400d1b:	e9 40 fe ff ff       	jmpq   400b60 <.plt>

0000000000400d20 <__sprintf_chk@plt>:
  400d20:	ff 25 ca 33 20 00    	jmpq   *0x2033ca(%rip)        # 6040f0 <__sprintf_chk@GLIBC_2.3.4>
  400d26:	68 1b 00 00 00       	pushq  $0x1b
  400d2b:	e9 30 fe ff ff       	jmpq   400b60 <.plt>

0000000000400d30 <socket@plt>:
  400d30:	ff 25 c2 33 20 00    	jmpq   *0x2033c2(%rip)        # 6040f8 <socket@GLIBC_2.2.5>
  400d36:	68 1c 00 00 00       	pushq  $0x1c
  400d3b:	e9 20 fe ff ff       	jmpq   400b60 <.plt>

Disassembly of section .plt.got:

0000000000400d40 <__gmon_start__@plt>:
  400d40:	ff 25 b2 32 20 00    	jmpq   *0x2032b2(%rip)        # 603ff8 <__gmon_start__>
  400d46:	66 90                	xchg   %ax,%ax

Disassembly of section .text:

0000000000400d50 <_start>:
  400d50:	31 ed                	xor    %ebp,%ebp
  400d52:	49 89 d1             	mov    %rdx,%r9
  400d55:	5e                   	pop    %rsi
  400d56:	48 89 e2             	mov    %rsp,%rdx
  400d59:	48 83 e4 f0          	and    $0xfffffffffffffff0,%rsp
  400d5d:	50                   	push   %rax
  400d5e:	54                   	push   %rsp
  400d5f:	49 c7 c0 e0 25 40 00 	mov    $0x4025e0,%r8
  400d66:	48 c7 c1 70 25 40 00 	mov    $0x402570,%rcx
  400d6d:	48 c7 c7 46 0e 40 00 	mov    $0x400e46,%rdi
  400d74:	e8 97 fe ff ff       	callq  400c10 <__libc_start_main@plt>
  400d79:	f4                   	hlt    
  400d7a:	66 0f 1f 44 00 00    	nopw   0x0(%rax,%rax,1)

0000000000400d80 <deregister_tm_clones>:
  400d80:	b8 87 4b 60 00       	mov    $0x604b87,%eax
  400d85:	55                   	push   %rbp
  400d86:	48 2d 80 4b 60 00    	sub    $0x604b80,%rax
  400d8c:	48 83 f8 0e          	cmp    $0xe,%rax
  400d90:	48 89 e5             	mov    %rsp,%rbp
  400d93:	76 1b                	jbe    400db0 <deregister_tm_clones+0x30>
  400d95:	b8 00 00 00 00       	mov    $0x0,%eax
  400d9a:	48 85 c0             	test   %rax,%rax
  400d9d:	74 11                	je     400db0 <deregister_tm_clones+0x30>
  400d9f:	5d                   	pop    %rbp
  400da0:	bf 80 4b 60 00       	mov    $0x604b80,%edi
  400da5:	ff e0                	jmpq   *%rax
  400da7:	66 0f 1f 84 00 00 00 	nopw   0x0(%rax,%rax,1)
  400dae:	00 00 
  400db0:	5d                   	pop    %rbp
  400db1:	c3                   	retq   
  400db2:	0f 1f 40 00          	nopl   0x0(%rax)
  400db6:	66 2e 0f 1f 84 00 00 	nopw   %cs:0x0(%rax,%rax,1)
  400dbd:	00 00 00 

0000000000400dc0 <register_tm_clones>:
  400dc0:	be 80 4b 60 00       	mov    $0x604b80,%esi
  400dc5:	55                   	push   %rbp
  400dc6:	48 81 ee 80 4b 60 00 	sub    $0x604b80,%rsi
  400dcd:	48 c1 fe 03          	sar    $0x3,%rsi
  400dd1:	48 89 e5             	mov    %rsp,%rbp
  400dd4:	48 89 f0             	mov    %rsi,%rax
  400dd7:	48 c1 e8 3f          	shr    $0x3f,%rax
  400ddb:	48 01 c6             	add    %rax,%rsi
  400dde:	48 d1 fe             	sar    %rsi
  400de1:	74 15                	je     400df8 <register_tm_clones+0x38>
  400de3:	b8 00 00 00 00       	mov    $0x0,%eax
  400de8:	48 85 c0             	test   %rax,%rax
  400deb:	74 0b                	je     400df8 <register_tm_clones+0x38>
  400ded:	5d                   	pop    %rbp
  400dee:	bf 80 4b 60 00       	mov    $0x604b80,%edi
  400df3:	ff e0                	jmpq   *%rax
  400df5:	0f 1f 00             	nopl   (%rax)
  400df8:	5d                   	pop    %rbp
  400df9:	c3                   	retq   
  400dfa:	66 0f 1f 44 00 00    	nopw   0x0(%rax,%rax,1)

0000000000400e00 <__do_global_dtors_aux>:
  400e00:	80 3d a1 3d 20 00 00 	cmpb   $0x0,0x203da1(%rip)        # 604ba8 <completed.7594>
  400e07:	75 11                	jne    400e1a <__do_global_dtors_aux+0x1a>
  400e09:	55                   	push   %rbp
  400e0a:	48 89 e5             	mov    %rsp,%rbp
  400e0d:	e8 6e ff ff ff       	callq  400d80 <deregister_tm_clones>
  400e12:	5d                   	pop    %rbp
  400e13:	c6 05 8e 3d 20 00 01 	movb   $0x1,0x203d8e(%rip)        # 604ba8 <completed.7594>
  400e1a:	f3 c3                	repz retq 
  400e1c:	0f 1f 40 00          	nopl   0x0(%rax)

0000000000400e20 <frame_dummy>:
  400e20:	bf 20 3e 60 00       	mov    $0x603e20,%edi
  400e25:	48 83 3f 00          	cmpq   $0x0,(%rdi)
  400e29:	75 05                	jne    400e30 <frame_dummy+0x10>
  400e2b:	eb 93                	jmp    400dc0 <register_tm_clones>
  400e2d:	0f 1f 00             	nopl   (%rax)
  400e30:	b8 00 00 00 00       	mov    $0x0,%eax
  400e35:	48 85 c0             	test   %rax,%rax
  400e38:	74 f1                	je     400e2b <frame_dummy+0xb>
  400e3a:	55                   	push   %rbp
  400e3b:	48 89 e5             	mov    %rsp,%rbp
  400e3e:	ff d0                	callq  *%rax
  400e40:	5d                   	pop    %rbp
  400e41:	e9 7a ff ff ff       	jmpq   400dc0 <register_tm_clones>

0000000000400e46 <main>:
  400e46:	53                   	push   %rbx
  400e47:	83 ff 01             	cmp    $0x1,%edi
  400e4a:	75 10                	jne    400e5c <main+0x16>
  400e4c:	48 8b 05 3d 3d 20 00 	mov    0x203d3d(%rip),%rax        # 604b90 <stdin@@GLIBC_2.2.5>
  400e53:	48 89 05 56 3d 20 00 	mov    %rax,0x203d56(%rip)        # 604bb0 <infile>
  400e5a:	eb 63                	jmp    400ebf <main+0x79>
  400e5c:	48 89 f3             	mov    %rsi,%rbx
  400e5f:	83 ff 02             	cmp    $0x2,%edi
  400e62:	75 3a                	jne    400e9e <main+0x58>
  400e64:	48 8b 7e 08          	mov    0x8(%rsi),%rdi
  400e68:	be 04 26 40 00       	mov    $0x402604,%esi
  400e6d:	e8 3e fe ff ff       	callq  400cb0 <fopen@plt>
  400e72:	48 89 05 37 3d 20 00 	mov    %rax,0x203d37(%rip)        # 604bb0 <infile>
  400e79:	48 85 c0             	test   %rax,%rax
  400e7c:	75 41                	jne    400ebf <main+0x79>
  400e7e:	48 8b 4b 08          	mov    0x8(%rbx),%rcx
  400e82:	48 8b 13             	mov    (%rbx),%rdx
  400e85:	be 06 26 40 00       	mov    $0x402606,%esi
  400e8a:	bf 01 00 00 00       	mov    $0x1,%edi
  400e8f:	e8 0c fe ff ff       	callq  400ca0 <__printf_chk@plt>
  400e94:	bf 08 00 00 00       	mov    $0x8,%edi
  400e99:	e8 32 fe ff ff       	callq  400cd0 <exit@plt>
  400e9e:	48 8b 16             	mov    (%rsi),%rdx
  400ea1:	be 23 26 40 00       	mov    $0x402623,%esi
  400ea6:	bf 01 00 00 00       	mov    $0x1,%edi
  400eab:	b8 00 00 00 00       	mov    $0x0,%eax
  400eb0:	e8 eb fd ff ff       	callq  400ca0 <__printf_chk@plt>
  400eb5:	bf 08 00 00 00       	mov    $0x8,%edi
  400eba:	e8 11 fe ff ff       	callq  400cd0 <exit@plt>
  400ebf:	e8 dc 06 00 00       	callq  4015a0 <initialize_bomb>
  400ec4:	bf 98 26 40 00       	mov    $0x402698,%edi
  400ec9:	e8 e2 fc ff ff       	callq  400bb0 <puts@plt>
  400ece:	bf d8 26 40 00       	mov    $0x4026d8,%edi
  400ed3:	e8 d8 fc ff ff       	callq  400bb0 <puts@plt>
  400ed8:	e8 a8 09 00 00       	callq  401885 <read_line>
  400edd:	48 89 c7             	mov    %rax,%rdi
  400ee0:	e8 ec 00 00 00       	callq  400fd1 <phase_1>
  400ee5:	e8 c1 0a 00 00       	callq  4019ab <phase_defused>
  400eea:	bf 08 27 40 00       	mov    $0x402708,%edi
  400eef:	e8 bc fc ff ff       	callq  400bb0 <puts@plt>
  400ef4:	e8 8c 09 00 00       	callq  401885 <read_line>
  400ef9:	48 89 c7             	mov    %rax,%rdi
  400efc:	e8 2e 01 00 00       	callq  40102f <phase_2>
  400f01:	e8 a5 0a 00 00       	callq  4019ab <phase_defused>
  400f06:	bf 3d 26 40 00       	mov    $0x40263d,%edi
  400f0b:	e8 a0 fc ff ff       	callq  400bb0 <puts@plt>
  400f10:	e8 70 09 00 00       	callq  401885 <read_line>
  400f15:	48 89 c7             	mov    %rax,%rdi
  400f18:	e8 2e 01 00 00       	callq  40104b <phase_3>
  400f1d:	e8 89 0a 00 00       	callq  4019ab <phase_defused>
  400f22:	bf 5b 26 40 00       	mov    $0x40265b,%edi
  400f27:	e8 84 fc ff ff       	callq  400bb0 <puts@plt>
  400f2c:	e8 54 09 00 00       	callq  401885 <read_line>
  400f31:	48 89 c7             	mov    %rax,%rdi
  400f34:	e8 9e 01 00 00       	callq  4010d7 <phase_4>
  400f39:	e8 6d 0a 00 00       	callq  4019ab <phase_defused>
  400f3e:	bf 38 27 40 00       	mov    $0x402738,%edi
  400f43:	e8 68 fc ff ff       	callq  400bb0 <puts@plt>
  400f48:	e8 38 09 00 00       	callq  401885 <read_line>
  400f4d:	48 89 c7             	mov    %rax,%rdi
  400f50:	e8 ee 01 00 00       	callq  401143 <phase_5>
  400f55:	e8 51 0a 00 00       	callq  4019ab <phase_defused>
  400f5a:	bf 6c 26 40 00       	mov    $0x40266c,%edi
  400f5f:	e8 4c fc ff ff       	callq  400bb0 <puts@plt>
  400f64:	e8 1c 09 00 00       	callq  401885 <read_line>
  400f69:	48 89 c7             	mov    %rax,%rdi
  400f6c:	e8 99 02 00 00       	callq  40120a <phase_6>
  400f71:	e8 35 0a 00 00       	callq  4019ab <phase_defused>
  400f76:	bf 60 27 40 00       	mov    $0x402760,%edi
  400f7b:	e8 30 fc ff ff       	callq  400bb0 <puts@plt>
  400f80:	e8 00 09 00 00       	callq  401885 <read_line>
  400f85:	48 89 c7             	mov    %rax,%rdi
  400f88:	e8 ea 02 00 00       	callq  401277 <phase_7>
  400f8d:	e8 19 0a 00 00       	callq  4019ab <phase_defused>
  400f92:	bf 80 27 40 00       	mov    $0x402780,%edi
  400f97:	e8 14 fc ff ff       	callq  400bb0 <puts@plt>
  400f9c:	e8 e4 08 00 00       	callq  401885 <read_line>
  400fa1:	48 89 c7             	mov    %rax,%rdi
  400fa4:	e8 75 03 00 00       	callq  40131e <phase_8>
  400fa9:	e8 fd 09 00 00       	callq  4019ab <phase_defused>
  400fae:	bf 8a 26 40 00       	mov    $0x40268a,%edi
  400fb3:	e8 f8 fb ff ff       	callq  400bb0 <puts@plt>
  400fb8:	e8 c8 08 00 00       	callq  401885 <read_line>
  400fbd:	48 89 c7             	mov    %rax,%rdi
  400fc0:	e8 a1 04 00 00       	callq  401466 <phase_9>
  400fc5:	e8 e1 09 00 00       	callq  4019ab <phase_defused>
  400fca:	b8 00 00 00 00       	mov    $0x0,%eax
  400fcf:	5b                   	pop    %rbx
  400fd0:	c3                   	retq   

0000000000400fd1 <phase_1>:
  400fd1:	48 83 ec 18          	sub    $0x18,%rsp
  400fd5:	64 48 8b 04 25 28 00 	mov    %fs:0x28,%rax
  400fdc:	00 00 
  400fde:	48 89 44 24 08       	mov    %rax,0x8(%rsp)
  400fe3:	31 c0                	xor    %eax,%eax
  400fe5:	c7 44 24 04 00 00 00 	movl   $0x0,0x4(%rsp)
  400fec:	00 
  400fed:	48 8d 54 24 04       	lea    0x4(%rsp),%rdx
  400ff2:	be 90 2a 40 00       	mov    $0x402a90,%esi
  400ff7:	e8 94 fc ff ff       	callq  400c90 <__isoc99_sscanf@plt>
  400ffc:	83 f8 01             	cmp    $0x1,%eax
  400fff:	74 05                	je     401006 <phase_1+0x35>
  401001:	e8 0a 08 00 00       	callq  401810 <explode_bomb>
  401006:	81 7c 24 04 22 01 00 	cmpl   $0x122,0x4(%rsp)
  40100d:	00 
  40100e:	74 05                	je     401015 <phase_1+0x44>
  401010:	e8 fb 07 00 00       	callq  401810 <explode_bomb>
  401015:	48 8b 44 24 08       	mov    0x8(%rsp),%rax
  40101a:	64 48 33 04 25 28 00 	xor    %fs:0x28,%rax
  401021:	00 00 
  401023:	74 05                	je     40102a <phase_1+0x59>
  401025:	e8 a6 fb ff ff       	callq  400bd0 <__stack_chk_fail@plt>
  40102a:	48 83 c4 18          	add    $0x18,%rsp
  40102e:	c3                   	retq   

000000000040102f <phase_2>:
  40102f:	48 83 ec 08          	sub    $0x8,%rsp
  401033:	be a0 27 40 00       	mov    $0x4027a0,%esi
  401038:	e8 fc 04 00 00       	callq  401539 <strings_not_equal>
  40103d:	85 c0                	test   %eax,%eax
  40103f:	74 05                	je     401046 <phase_2+0x17>
  401041:	e8 ca 07 00 00       	callq  401810 <explode_bomb>
  401046:	48 83 c4 08          	add    $0x8,%rsp
  40104a:	c3                   	retq   

000000000040104b <phase_3>:
  40104b:	53                   	push   %rbx
  40104c:	48 89 fb             	mov    %rdi,%rbx
  40104f:	bf d0 27 40 00       	mov    $0x4027d0,%edi
  401054:	e8 c2 04 00 00       	callq  40151b <string_length>
  401059:	8d 78 01             	lea    0x1(%rax),%edi
  40105c:	48 63 ff             	movslq %edi,%rdi
  40105f:	e8 0c fc ff ff       	callq  400c70 <malloc@plt>
  401064:	48 ba 54 68 65 20 6d 	movabs $0x6e6f6f6d20656854,%rdx
  40106b:	6f 6f 6e 
  40106e:	48 89 10             	mov    %rdx,(%rax)
  401071:	48 b9 20 75 6e 69 74 	movabs $0x69772074696e7520,%rcx
  401078:	20 77 69 
  40107b:	48 89 48 08          	mov    %rcx,0x8(%rax)
  40107f:	48 be 6c 6c 20 62 65 	movabs $0x6964206562206c6c,%rsi
  401086:	20 64 69 
  401089:	48 89 70 10          	mov    %rsi,0x10(%rax)
  40108d:	48 ba 76 69 64 65 64 	movabs $0x6e69206465646976,%rdx
  401094:	20 69 6e 
  401097:	48 89 50 18          	mov    %rdx,0x18(%rax)
  40109b:	48 b9 74 6f 20 74 77 	movabs $0x64206f7774206f74,%rcx
  4010a2:	6f 20 64 
  4010a5:	48 89 48 20          	mov    %rcx,0x20(%rax)
  4010a9:	48 be 69 76 69 73 69 	movabs $0x736e6f6973697669,%rsi
  4010b0:	6f 6e 73 
  4010b3:	48 89 70 28          	mov    %rsi,0x28(%rax)
  4010b7:	66 c7 40 30 2e 00    	movw   $0x2e,0x30(%rax)
  4010bd:	c6 40 1b 79          	movb   $0x79,0x1b(%rax)
  4010c1:	48 89 c6             	mov    %rax,%rsi
  4010c4:	48 89 df             	mov    %rbx,%rdi
  4010c7:	e8 6d 04 00 00       	callq  401539 <strings_not_equal>
  4010cc:	85 c0                	test   %eax,%eax
  4010ce:	74 05                	je     4010d5 <phase_3+0x8a>
  4010d0:	e8 3b 07 00 00       	callq  401810 <explode_bomb>
  4010d5:	5b                   	pop    %rbx
  4010d6:	c3                   	retq   

00000000004010d7 <phase_4>:
  4010d7:	55                   	push   %rbp
  4010d8:	53                   	push   %rbx
  4010d9:	48 83 ec 28          	sub    $0x28,%rsp
  4010dd:	64 48 8b 04 25 28 00 	mov    %fs:0x28,%rax
  4010e4:	00 00 
  4010e6:	48 89 44 24 18       	mov    %rax,0x18(%rsp)
  4010eb:	31 c0                	xor    %eax,%eax
  4010ed:	48 89 e6             	mov    %rsp,%rsi
  4010f0:	e8 51 07 00 00       	callq  401846 <read_six_numbers>
  4010f5:	83 3c 24 01          	cmpl   $0x1,(%rsp)
  4010f9:	75 07                	jne    401102 <phase_4+0x2b>
  4010fb:	83 7c 24 04 04       	cmpl   $0x4,0x4(%rsp)
  401100:	74 05                	je     401107 <phase_4+0x30>
  401102:	e8 09 07 00 00       	callq  401810 <explode_bomb>
  401107:	48 89 e3             	mov    %rsp,%rbx
  40110a:	48 8d 6c 24 10       	lea    0x10(%rsp),%rbp
  40110f:	8b 43 04             	mov    0x4(%rbx),%eax
  401112:	03 03                	add    (%rbx),%eax
  401114:	39 43 08             	cmp    %eax,0x8(%rbx)
  401117:	74 05                	je     40111e <phase_4+0x47>
  401119:	e8 f2 06 00 00       	callq  401810 <explode_bomb>
  40111e:	48 83 c3 04          	add    $0x4,%rbx
  401122:	48 39 eb             	cmp    %rbp,%rbx
  401125:	75 e8                	jne    40110f <phase_4+0x38>
  401127:	48 8b 44 24 18       	mov    0x18(%rsp),%rax
  40112c:	64 48 33 04 25 28 00 	xor    %fs:0x28,%rax
  401133:	00 00 
  401135:	74 05                	je     40113c <phase_4+0x65>
  401137:	e8 94 fa ff ff       	callq  400bd0 <__stack_chk_fail@plt>
  40113c:	48 83 c4 28          	add    $0x28,%rsp
  401140:	5b                   	pop    %rbx
  401141:	5d                   	pop    %rbp
  401142:	c3                   	retq   

0000000000401143 <phase_5>:
  401143:	48 83 ec 18          	sub    $0x18,%rsp
  401147:	64 48 8b 04 25 28 00 	mov    %fs:0x28,%rax
  40114e:	00 00 
  401150:	48 89 44 24 08       	mov    %rax,0x8(%rsp)
  401155:	31 c0                	xor    %eax,%eax
  401157:	48 8d 4c 24 04       	lea    0x4(%rsp),%rcx
  40115c:	48 89 e2             	mov    %rsp,%rdx
  40115f:	be 8d 2a 40 00       	mov    $0x402a8d,%esi
  401164:	e8 27 fb ff ff       	callq  400c90 <__isoc99_sscanf@plt>
  401169:	83 f8 01             	cmp    $0x1,%eax
  40116c:	7f 05                	jg     401173 <phase_5+0x30>
  40116e:	e8 9d 06 00 00       	callq  401810 <explode_bomb>
  401173:	8b 04 24             	mov    (%rsp),%eax
  401176:	83 e0 0f             	and    $0xf,%eax
  401179:	89 04 24             	mov    %eax,(%rsp)
  40117c:	83 f8 0f             	cmp    $0xf,%eax
  40117f:	74 2f                	je     4011b0 <phase_5+0x6d>
  401181:	b9 00 00 00 00       	mov    $0x0,%ecx
  401186:	ba 00 00 00 00       	mov    $0x0,%edx
  40118b:	83 c2 01             	add    $0x1,%edx
  40118e:	48 98                	cltq   
  401190:	8b 04 85 60 28 40 00 	mov    0x402860(,%rax,4),%eax
  401197:	01 c1                	add    %eax,%ecx
  401199:	83 f8 0f             	cmp    $0xf,%eax
  40119c:	75 ed                	jne    40118b <phase_5+0x48>
  40119e:	c7 04 24 0f 00 00 00 	movl   $0xf,(%rsp)
  4011a5:	83 fa 0c             	cmp    $0xc,%edx
  4011a8:	75 06                	jne    4011b0 <phase_5+0x6d>
  4011aa:	3b 4c 24 04          	cmp    0x4(%rsp),%ecx
  4011ae:	74 05                	je     4011b5 <phase_5+0x72>
  4011b0:	e8 5b 06 00 00       	callq  401810 <explode_bomb>
  4011b5:	48 8b 44 24 08       	mov    0x8(%rsp),%rax
  4011ba:	64 48 33 04 25 28 00 	xor    %fs:0x28,%rax
  4011c1:	00 00 
  4011c3:	74 05                	je     4011ca <phase_5+0x87>
  4011c5:	e8 06 fa ff ff       	callq  400bd0 <__stack_chk_fail@plt>
  4011ca:	48 83 c4 18          	add    $0x18,%rsp
  4011ce:	c3                   	retq   

00000000004011cf <fun6>:
  4011cf:	85 ff                	test   %edi,%edi
  4011d1:	7e 2b                	jle    4011fe <fun6+0x2f>
  4011d3:	89 f0                	mov    %esi,%eax
  4011d5:	83 ff 01             	cmp    $0x1,%edi
  4011d8:	74 2e                	je     401208 <fun6+0x39>
  4011da:	41 54                	push   %r12
  4011dc:	55                   	push   %rbp
  4011dd:	53                   	push   %rbx
  4011de:	89 f5                	mov    %esi,%ebp
  4011e0:	89 fb                	mov    %edi,%ebx
  4011e2:	8d 7f ff             	lea    -0x1(%rdi),%edi
  4011e5:	e8 e5 ff ff ff       	callq  4011cf <fun6>
  4011ea:	44 8d 64 05 00       	lea    0x0(%rbp,%rax,1),%r12d
  4011ef:	8d 7b fe             	lea    -0x2(%rbx),%edi
  4011f2:	89 ee                	mov    %ebp,%esi
  4011f4:	e8 d6 ff ff ff       	callq  4011cf <fun6>
  4011f9:	44 01 e0             	add    %r12d,%eax
  4011fc:	eb 06                	jmp    401204 <fun6+0x35>
  4011fe:	b8 00 00 00 00       	mov    $0x0,%eax
  401203:	c3                   	retq   
  401204:	5b                   	pop    %rbx
  401205:	5d                   	pop    %rbp
  401206:	41 5c                	pop    %r12
  401208:	f3 c3                	repz retq 

000000000040120a <phase_6>:
  40120a:	48 83 ec 18          	sub    $0x18,%rsp
  40120e:	64 48 8b 04 25 28 00 	mov    %fs:0x28,%rax
  401215:	00 00 
  401217:	48 89 44 24 08       	mov    %rax,0x8(%rsp)
  40121c:	31 c0                	xor    %eax,%eax
  40121e:	48 89 e1             	mov    %rsp,%rcx
  401221:	48 8d 54 24 04       	lea    0x4(%rsp),%rdx
  401226:	be 8d 2a 40 00       	mov    $0x402a8d,%esi
  40122b:	e8 60 fa ff ff       	callq  400c90 <__isoc99_sscanf@plt>
  401230:	83 f8 02             	cmp    $0x2,%eax
  401233:	75 0b                	jne    401240 <phase_6+0x36>
  401235:	8b 04 24             	mov    (%rsp),%eax
  401238:	83 e8 02             	sub    $0x2,%eax
  40123b:	83 f8 02             	cmp    $0x2,%eax
  40123e:	76 05                	jbe    401245 <phase_6+0x3b>
  401240:	e8 cb 05 00 00       	callq  401810 <explode_bomb>
  401245:	8b 34 24             	mov    (%rsp),%esi
  401248:	bf 06 00 00 00       	mov    $0x6,%edi
  40124d:	e8 7d ff ff ff       	callq  4011cf <fun6>
  401252:	3b 44 24 04          	cmp    0x4(%rsp),%eax
  401256:	74 05                	je     40125d <phase_6+0x53>
  401258:	e8 b3 05 00 00       	callq  401810 <explode_bomb>
  40125d:	48 8b 44 24 08       	mov    0x8(%rsp),%rax
  401262:	64 48 33 04 25 28 00 	xor    %fs:0x28,%rax
  401269:	00 00 
  40126b:	74 05                	je     401272 <phase_6+0x68>
  40126d:	e8 5e f9 ff ff       	callq  400bd0 <__stack_chk_fail@plt>
  401272:	48 83 c4 18          	add    $0x18,%rsp
  401276:	c3                   	retq   

0000000000401277 <phase_7>:
  401277:	48 83 ec 18          	sub    $0x18,%rsp
  40127b:	64 48 8b 04 25 28 00 	mov    %fs:0x28,%rax
  401282:	00 00 
  401284:	48 89 44 24 08       	mov    %rax,0x8(%rsp)
  401289:	31 c0                	xor    %eax,%eax
  40128b:	48 8d 4c 24 04       	lea    0x4(%rsp),%rcx
  401290:	48 89 e2             	mov    %rsp,%rdx
  401293:	be 8d 2a 40 00       	mov    $0x402a8d,%esi
  401298:	e8 f3 f9 ff ff       	callq  400c90 <__isoc99_sscanf@plt>
  40129d:	83 f8 01             	cmp    $0x1,%eax
  4012a0:	7f 05                	jg     4012a7 <phase_7+0x30>
  4012a2:	e8 69 05 00 00       	callq  401810 <explode_bomb>
  4012a7:	83 3c 24 07          	cmpl   $0x7,(%rsp)
  4012ab:	77 3b                	ja     4012e8 <phase_7+0x71>
  4012ad:	8b 04 24             	mov    (%rsp),%eax
  4012b0:	ff 24 c5 20 28 40 00 	jmpq   *0x402820(,%rax,8)
  4012b7:	b8 65 02 00 00       	mov    $0x265,%eax
  4012bc:	eb 3b                	jmp    4012f9 <phase_7+0x82>
  4012be:	b8 59 03 00 00       	mov    $0x359,%eax
  4012c3:	eb 34                	jmp    4012f9 <phase_7+0x82>
  4012c5:	b8 59 02 00 00       	mov    $0x259,%eax
  4012ca:	eb 2d                	jmp    4012f9 <phase_7+0x82>
  4012cc:	b8 9d 03 00 00       	mov    $0x39d,%eax
  4012d1:	eb 26                	jmp    4012f9 <phase_7+0x82>
  4012d3:	b8 e9 00 00 00       	mov    $0xe9,%eax
  4012d8:	eb 1f                	jmp    4012f9 <phase_7+0x82>
  4012da:	b8 a6 02 00 00       	mov    $0x2a6,%eax
  4012df:	eb 18                	jmp    4012f9 <phase_7+0x82>
  4012e1:	b8 02 02 00 00       	mov    $0x202,%eax
  4012e6:	eb 11                	jmp    4012f9 <phase_7+0x82>
  4012e8:	e8 23 05 00 00       	callq  401810 <explode_bomb>
  4012ed:	b8 00 00 00 00       	mov    $0x0,%eax
  4012f2:	eb 05                	jmp    4012f9 <phase_7+0x82>
  4012f4:	b8 36 00 00 00       	mov    $0x36,%eax
  4012f9:	3b 44 24 04          	cmp    0x4(%rsp),%eax
  4012fd:	74 05                	je     401304 <phase_7+0x8d>
  4012ff:	e8 0c 05 00 00       	callq  401810 <explode_bomb>
  401304:	48 8b 44 24 08       	mov    0x8(%rsp),%rax
  401309:	64 48 33 04 25 28 00 	xor    %fs:0x28,%rax
  401310:	00 00 
  401312:	74 05                	je     401319 <phase_7+0xa2>
  401314:	e8 b7 f8 ff ff       	callq  400bd0 <__stack_chk_fail@plt>
  401319:	48 83 c4 18          	add    $0x18,%rsp
  40131d:	c3                   	retq   

000000000040131e <phase_8>:
  40131e:	41 55                	push   %r13
  401320:	41 54                	push   %r12
  401322:	55                   	push   %rbp
  401323:	53                   	push   %rbx
  401324:	48 83 ec 68          	sub    $0x68,%rsp
  401328:	64 48 8b 04 25 28 00 	mov    %fs:0x28,%rax
  40132f:	00 00 
  401331:	48 89 44 24 58       	mov    %rax,0x58(%rsp)
  401336:	31 c0                	xor    %eax,%eax
  401338:	48 89 e6             	mov    %rsp,%rsi
  40133b:	e8 06 05 00 00       	callq  401846 <read_six_numbers>
  401340:	49 89 e4             	mov    %rsp,%r12
  401343:	41 bd 00 00 00 00    	mov    $0x0,%r13d
  401349:	4c 89 e5             	mov    %r12,%rbp
  40134c:	41 8b 04 24          	mov    (%r12),%eax
  401350:	83 e8 01             	sub    $0x1,%eax
  401353:	83 f8 05             	cmp    $0x5,%eax
  401356:	76 05                	jbe    40135d <phase_8+0x3f>
  401358:	e8 b3 04 00 00       	callq  401810 <explode_bomb>
  40135d:	41 83 c5 01          	add    $0x1,%r13d
  401361:	41 83 fd 06          	cmp    $0x6,%r13d
  401365:	74 3d                	je     4013a4 <phase_8+0x86>
  401367:	44 89 eb             	mov    %r13d,%ebx
  40136a:	48 63 c3             	movslq %ebx,%rax
  40136d:	8b 04 84             	mov    (%rsp,%rax,4),%eax
  401370:	39 45 00             	cmp    %eax,0x0(%rbp)
  401373:	75 05                	jne    40137a <phase_8+0x5c>
  401375:	e8 96 04 00 00       	callq  401810 <explode_bomb>
  40137a:	83 c3 01             	add    $0x1,%ebx
  40137d:	83 fb 05             	cmp    $0x5,%ebx
  401380:	7e e8                	jle    40136a <phase_8+0x4c>
  401382:	49 83 c4 04          	add    $0x4,%r12
  401386:	eb c1                	jmp    401349 <phase_8+0x2b>
  401388:	48 8b 52 08          	mov    0x8(%rdx),%rdx
  40138c:	83 c0 01             	add    $0x1,%eax
  40138f:	39 c8                	cmp    %ecx,%eax
  401391:	75 f5                	jne    401388 <phase_8+0x6a>
  401393:	48 89 54 74 20       	mov    %rdx,0x20(%rsp,%rsi,2)
  401398:	48 83 c6 04          	add    $0x4,%rsi
  40139c:	48 83 fe 18          	cmp    $0x18,%rsi
  4013a0:	75 07                	jne    4013a9 <phase_8+0x8b>
  4013a2:	eb 19                	jmp    4013bd <phase_8+0x9f>
  4013a4:	be 00 00 00 00       	mov    $0x0,%esi
  4013a9:	8b 0c 34             	mov    (%rsp,%rsi,1),%ecx
  4013ac:	b8 01 00 00 00       	mov    $0x1,%eax
  4013b1:	ba 00 43 60 00       	mov    $0x604300,%edx
  4013b6:	83 f9 01             	cmp    $0x1,%ecx
  4013b9:	7f cd                	jg     401388 <phase_8+0x6a>
  4013bb:	eb d6                	jmp    401393 <phase_8+0x75>
  4013bd:	48 8b 5c 24 20       	mov    0x20(%rsp),%rbx
  4013c2:	48 8d 44 24 20       	lea    0x20(%rsp),%rax
  4013c7:	48 8d 74 24 48       	lea    0x48(%rsp),%rsi
  4013cc:	48 89 d9             	mov    %rbx,%rcx
  4013cf:	48 8b 50 08          	mov    0x8(%rax),%rdx
  4013d3:	48 89 51 08          	mov    %rdx,0x8(%rcx)
  4013d7:	48 83 c0 08          	add    $0x8,%rax
  4013db:	48 89 d1             	mov    %rdx,%rcx
  4013de:	48 39 f0             	cmp    %rsi,%rax
  4013e1:	75 ec                	jne    4013cf <phase_8+0xb1>
  4013e3:	48 c7 42 08 00 00 00 	movq   $0x0,0x8(%rdx)
  4013ea:	00 
  4013eb:	bd 05 00 00 00       	mov    $0x5,%ebp
  4013f0:	48 8b 43 08          	mov    0x8(%rbx),%rax
  4013f4:	8b 00                	mov    (%rax),%eax
  4013f6:	39 03                	cmp    %eax,(%rbx)
  4013f8:	7d 05                	jge    4013ff <phase_8+0xe1>
  4013fa:	e8 11 04 00 00       	callq  401810 <explode_bomb>
  4013ff:	48 8b 5b 08          	mov    0x8(%rbx),%rbx
  401403:	83 ed 01             	sub    $0x1,%ebp
  401406:	75 e8                	jne    4013f0 <phase_8+0xd2>
  401408:	48 8b 44 24 58       	mov    0x58(%rsp),%rax
  40140d:	64 48 33 04 25 28 00 	xor    %fs:0x28,%rax
  401414:	00 00 
  401416:	74 05                	je     40141d <phase_8+0xff>
  401418:	e8 b3 f7 ff ff       	callq  400bd0 <__stack_chk_fail@plt>
  40141d:	48 83 c4 68          	add    $0x68,%rsp
  401421:	5b                   	pop    %rbx
  401422:	5d                   	pop    %rbp
  401423:	41 5c                	pop    %r12
  401425:	41 5d                	pop    %r13
  401427:	c3                   	retq   

0000000000401428 <fun9>:
  401428:	48 83 ec 08          	sub    $0x8,%rsp
  40142c:	48 85 ff             	test   %rdi,%rdi
  40142f:	74 2b                	je     40145c <fun9+0x34>
  401431:	8b 17                	mov    (%rdi),%edx
  401433:	39 f2                	cmp    %esi,%edx
  401435:	7e 0d                	jle    401444 <fun9+0x1c>
  401437:	48 8b 7f 08          	mov    0x8(%rdi),%rdi
  40143b:	e8 e8 ff ff ff       	callq  401428 <fun9>
  401440:	01 c0                	add    %eax,%eax
  401442:	eb 1d                	jmp    401461 <fun9+0x39>
  401444:	b8 00 00 00 00       	mov    $0x0,%eax
  401449:	39 f2                	cmp    %esi,%edx
  40144b:	74 14                	je     401461 <fun9+0x39>
  40144d:	48 8b 7f 10          	mov    0x10(%rdi),%rdi
  401451:	e8 d2 ff ff ff       	callq  401428 <fun9>
  401456:	8d 44 00 01          	lea    0x1(%rax,%rax,1),%eax
  40145a:	eb 05                	jmp    401461 <fun9+0x39>
  40145c:	b8 ff ff ff ff       	mov    $0xffffffff,%eax
  401461:	48 83 c4 08          	add    $0x8,%rsp
  401465:	c3                   	retq   

0000000000401466 <phase_9>:
  401466:	53                   	push   %rbx
  401467:	ba 0a 00 00 00       	mov    $0xa,%edx
  40146c:	be 00 00 00 00       	mov    $0x0,%esi
  401471:	e8 ea f7 ff ff       	callq  400c60 <strtol@plt>
  401476:	48 89 c3             	mov    %rax,%rbx
  401479:	8d 40 ff             	lea    -0x1(%rax),%eax
  40147c:	3d ec 03 00 00       	cmp    $0x3ec,%eax
  401481:	76 05                	jbe    401488 <phase_9+0x22>
  401483:	e8 88 03 00 00       	callq  401810 <explode_bomb>
  401488:	89 de                	mov    %ebx,%esi
  40148a:	bf 20 41 60 00       	mov    $0x604120,%edi
  40148f:	e8 94 ff ff ff       	callq  401428 <fun9>
  401494:	83 f8 07             	cmp    $0x7,%eax
  401497:	74 05                	je     40149e <phase_9+0x38>
  401499:	e8 72 03 00 00       	callq  401810 <explode_bomb>
  40149e:	5b                   	pop    %rbx
  40149f:	c3                   	retq   

00000000004014a0 <sig_handler>:
  4014a0:	48 83 ec 08          	sub    $0x8,%rsp
  4014a4:	bf a0 28 40 00       	mov    $0x4028a0,%edi
  4014a9:	e8 02 f7 ff ff       	callq  400bb0 <puts@plt>
  4014ae:	bf 03 00 00 00       	mov    $0x3,%edi
  4014b3:	e8 48 f8 ff ff       	callq  400d00 <sleep@plt>
  4014b8:	be 09 2a 40 00       	mov    $0x402a09,%esi
  4014bd:	bf 01 00 00 00       	mov    $0x1,%edi
  4014c2:	b8 00 00 00 00       	mov    $0x0,%eax
  4014c7:	e8 d4 f7 ff ff       	callq  400ca0 <__printf_chk@plt>
  4014cc:	48 8b 3d ad 36 20 00 	mov    0x2036ad(%rip),%rdi        # 604b80 <stdout@@GLIBC_2.2.5>
  4014d3:	e8 a8 f7 ff ff       	callq  400c80 <fflush@plt>
  4014d8:	bf 01 00 00 00       	mov    $0x1,%edi
  4014dd:	e8 1e f8 ff ff       	callq  400d00 <sleep@plt>
  4014e2:	bf 11 2a 40 00       	mov    $0x402a11,%edi
  4014e7:	e8 c4 f6 ff ff       	callq  400bb0 <puts@plt>
  4014ec:	bf 10 00 00 00       	mov    $0x10,%edi
  4014f1:	e8 da f7 ff ff       	callq  400cd0 <exit@plt>

00000000004014f6 <invalid_phase>:
  4014f6:	48 83 ec 08          	sub    $0x8,%rsp
  4014fa:	48 89 fa             	mov    %rdi,%rdx
  4014fd:	be 19 2a 40 00       	mov    $0x402a19,%esi
  401502:	bf 01 00 00 00       	mov    $0x1,%edi
  401507:	b8 00 00 00 00       	mov    $0x0,%eax
  40150c:	e8 8f f7 ff ff       	callq  400ca0 <__printf_chk@plt>
  401511:	bf 08 00 00 00       	mov    $0x8,%edi
  401516:	e8 b5 f7 ff ff       	callq  400cd0 <exit@plt>

000000000040151b <string_length>:
  40151b:	80 3f 00             	cmpb   $0x0,(%rdi)
  40151e:	74 13                	je     401533 <string_length+0x18>
  401520:	b8 00 00 00 00       	mov    $0x0,%eax
  401525:	48 83 c7 01          	add    $0x1,%rdi
  401529:	83 c0 01             	add    $0x1,%eax
  40152c:	80 3f 00             	cmpb   $0x0,(%rdi)
  40152f:	75 f4                	jne    401525 <string_length+0xa>
  401531:	f3 c3                	repz retq 
  401533:	b8 00 00 00 00       	mov    $0x0,%eax
  401538:	c3                   	retq   

0000000000401539 <strings_not_equal>:
  401539:	41 54                	push   %r12
  40153b:	55                   	push   %rbp
  40153c:	53                   	push   %rbx
  40153d:	48 89 fb             	mov    %rdi,%rbx
  401540:	48 89 f5             	mov    %rsi,%rbp
  401543:	e8 d3 ff ff ff       	callq  40151b <string_length>
  401548:	41 89 c4             	mov    %eax,%r12d
  40154b:	48 89 ef             	mov    %rbp,%rdi
  40154e:	e8 c8 ff ff ff       	callq  40151b <string_length>
  401553:	ba 01 00 00 00       	mov    $0x1,%edx
  401558:	41 39 c4             	cmp    %eax,%r12d
  40155b:	75 3c                	jne    401599 <strings_not_equal+0x60>
  40155d:	0f b6 03             	movzbl (%rbx),%eax
  401560:	84 c0                	test   %al,%al
  401562:	74 22                	je     401586 <strings_not_equal+0x4d>
  401564:	3a 45 00             	cmp    0x0(%rbp),%al
  401567:	74 07                	je     401570 <strings_not_equal+0x37>
  401569:	eb 22                	jmp    40158d <strings_not_equal+0x54>
  40156b:	3a 45 00             	cmp    0x0(%rbp),%al
  40156e:	75 24                	jne    401594 <strings_not_equal+0x5b>
  401570:	48 83 c3 01          	add    $0x1,%rbx
  401574:	48 83 c5 01          	add    $0x1,%rbp
  401578:	0f b6 03             	movzbl (%rbx),%eax
  40157b:	84 c0                	test   %al,%al
  40157d:	75 ec                	jne    40156b <strings_not_equal+0x32>
  40157f:	ba 00 00 00 00       	mov    $0x0,%edx
  401584:	eb 13                	jmp    401599 <strings_not_equal+0x60>
  401586:	ba 00 00 00 00       	mov    $0x0,%edx
  40158b:	eb 0c                	jmp    401599 <strings_not_equal+0x60>
  40158d:	ba 01 00 00 00       	mov    $0x1,%edx
  401592:	eb 05                	jmp    401599 <strings_not_equal+0x60>
  401594:	ba 01 00 00 00       	mov    $0x1,%edx
  401599:	89 d0                	mov    %edx,%eax
  40159b:	5b                   	pop    %rbx
  40159c:	5d                   	pop    %rbp
  40159d:	41 5c                	pop    %r12
  40159f:	c3                   	retq   

00000000004015a0 <initialize_bomb>:
  4015a0:	53                   	push   %rbx
  4015a1:	48 81 ec 50 20 00 00 	sub    $0x2050,%rsp
  4015a8:	64 48 8b 04 25 28 00 	mov    %fs:0x28,%rax
  4015af:	00 00 
  4015b1:	48 89 84 24 48 20 00 	mov    %rax,0x2048(%rsp)
  4015b8:	00 
  4015b9:	31 c0                	xor    %eax,%eax
  4015bb:	be a0 14 40 00       	mov    $0x4014a0,%esi
  4015c0:	bf 02 00 00 00       	mov    $0x2,%edi
  4015c5:	e8 66 f6 ff ff       	callq  400c30 <signal@plt>
  4015ca:	be 40 00 00 00       	mov    $0x40,%esi
  4015cf:	48 89 e7             	mov    %rsp,%rdi
  4015d2:	e8 e9 f6 ff ff       	callq  400cc0 <gethostname@plt>
  4015d7:	85 c0                	test   %eax,%eax
  4015d9:	75 13                	jne    4015ee <initialize_bomb+0x4e>
  4015db:	48 8b 3d 9e 31 20 00 	mov    0x20319e(%rip),%rdi        # 604780 <host_table>
  4015e2:	bb 88 47 60 00       	mov    $0x604788,%ebx
  4015e7:	48 85 ff             	test   %rdi,%rdi
  4015ea:	75 16                	jne    401602 <initialize_bomb+0x62>
  4015ec:	eb 52                	jmp    401640 <initialize_bomb+0xa0>
  4015ee:	bf d8 28 40 00       	mov    $0x4028d8,%edi
  4015f3:	e8 b8 f5 ff ff       	callq  400bb0 <puts@plt>
  4015f8:	bf 08 00 00 00       	mov    $0x8,%edi
  4015fd:	e8 ce f6 ff ff       	callq  400cd0 <exit@plt>
  401602:	48 89 e6             	mov    %rsp,%rsi
  401605:	e8 76 f5 ff ff       	callq  400b80 <strcasecmp@plt>
  40160a:	85 c0                	test   %eax,%eax
  40160c:	74 4e                	je     40165c <initialize_bomb+0xbc>
  40160e:	48 83 c3 08          	add    $0x8,%rbx
  401612:	48 8b 7b f8          	mov    -0x8(%rbx),%rdi
  401616:	48 85 ff             	test   %rdi,%rdi
  401619:	75 e7                	jne    401602 <initialize_bomb+0x62>
  40161b:	eb 23                	jmp    401640 <initialize_bomb+0xa0>
  40161d:	48 8d 54 24 40       	lea    0x40(%rsp),%rdx
  401622:	be 2a 2a 40 00       	mov    $0x402a2a,%esi
  401627:	bf 01 00 00 00       	mov    $0x1,%edi
  40162c:	b8 00 00 00 00       	mov    $0x0,%eax
  401631:	e8 6a f6 ff ff       	callq  400ca0 <__printf_chk@plt>
  401636:	bf 08 00 00 00       	mov    $0x8,%edi
  40163b:	e8 90 f6 ff ff       	callq  400cd0 <exit@plt>
  401640:	bf 10 29 40 00       	mov    $0x402910,%edi
  401645:	e8 66 f5 ff ff       	callq  400bb0 <puts@plt>
  40164a:	48 89 e7             	mov    %rsp,%rdi
  40164d:	e8 5e f5 ff ff       	callq  400bb0 <puts@plt>
  401652:	bf 08 00 00 00       	mov    $0x8,%edi
  401657:	e8 74 f6 ff ff       	callq  400cd0 <exit@plt>
  40165c:	48 8d 7c 24 40       	lea    0x40(%rsp),%rdi
  401661:	e8 b9 0c 00 00       	callq  40231f <init_driver>
  401666:	85 c0                	test   %eax,%eax
  401668:	78 b3                	js     40161d <initialize_bomb+0x7d>
  40166a:	48 8b 84 24 48 20 00 	mov    0x2048(%rsp),%rax
  401671:	00 
  401672:	64 48 33 04 25 28 00 	xor    %fs:0x28,%rax
  401679:	00 00 
  40167b:	74 05                	je     401682 <initialize_bomb+0xe2>
  40167d:	e8 4e f5 ff ff       	callq  400bd0 <__stack_chk_fail@plt>
  401682:	48 81 c4 50 20 00 00 	add    $0x2050,%rsp
  401689:	5b                   	pop    %rbx
  40168a:	c3                   	retq   

000000000040168b <initialize_bomb_solve>:
  40168b:	f3 c3                	repz retq 

000000000040168d <blank_line>:
  40168d:	55                   	push   %rbp
  40168e:	53                   	push   %rbx
  40168f:	48 83 ec 08          	sub    $0x8,%rsp
  401693:	48 89 fd             	mov    %rdi,%rbp
  401696:	eb 17                	jmp    4016af <blank_line+0x22>
  401698:	e8 73 f6 ff ff       	callq  400d10 <__ctype_b_loc@plt>
  40169d:	48 83 c5 01          	add    $0x1,%rbp
  4016a1:	48 0f be db          	movsbq %bl,%rbx
  4016a5:	48 8b 00             	mov    (%rax),%rax
  4016a8:	f6 44 58 01 20       	testb  $0x20,0x1(%rax,%rbx,2)
  4016ad:	74 0f                	je     4016be <blank_line+0x31>
  4016af:	0f b6 5d 00          	movzbl 0x0(%rbp),%ebx
  4016b3:	84 db                	test   %bl,%bl
  4016b5:	75 e1                	jne    401698 <blank_line+0xb>
  4016b7:	b8 01 00 00 00       	mov    $0x1,%eax
  4016bc:	eb 05                	jmp    4016c3 <blank_line+0x36>
  4016be:	b8 00 00 00 00       	mov    $0x0,%eax
  4016c3:	48 83 c4 08          	add    $0x8,%rsp
  4016c7:	5b                   	pop    %rbx
  4016c8:	5d                   	pop    %rbp
  4016c9:	c3                   	retq   

00000000004016ca <skip>:
  4016ca:	53                   	push   %rbx
  4016cb:	48 63 05 da 34 20 00 	movslq 0x2034da(%rip),%rax        # 604bac <num_input_strings>
  4016d2:	48 8d 3c 80          	lea    (%rax,%rax,4),%rdi
  4016d6:	48 c1 e7 04          	shl    $0x4,%rdi
  4016da:	48 81 c7 c0 4b 60 00 	add    $0x604bc0,%rdi
  4016e1:	48 8b 15 c8 34 20 00 	mov    0x2034c8(%rip),%rdx        # 604bb0 <infile>
  4016e8:	be 50 00 00 00       	mov    $0x50,%esi
  4016ed:	e8 2e f5 ff ff       	callq  400c20 <fgets@plt>
  4016f2:	48 89 c3             	mov    %rax,%rbx
  4016f5:	48 85 c0             	test   %rax,%rax
  4016f8:	74 0c                	je     401706 <skip+0x3c>
  4016fa:	48 89 c7             	mov    %rax,%rdi
  4016fd:	e8 8b ff ff ff       	callq  40168d <blank_line>
  401702:	85 c0                	test   %eax,%eax
  401704:	75 c5                	jne    4016cb <skip+0x1>
  401706:	48 89 d8             	mov    %rbx,%rax
  401709:	5b                   	pop    %rbx
  40170a:	c3                   	retq   

000000000040170b <send_msg>:
  40170b:	48 81 ec 18 40 00 00 	sub    $0x4018,%rsp
  401712:	41 89 f8             	mov    %edi,%r8d
  401715:	64 48 8b 04 25 28 00 	mov    %fs:0x28,%rax
  40171c:	00 00 
  40171e:	48 89 84 24 08 40 00 	mov    %rax,0x4008(%rsp)
  401725:	00 
  401726:	31 c0                	xor    %eax,%eax
  401728:	8b 35 7e 34 20 00    	mov    0x20347e(%rip),%esi        # 604bac <num_input_strings>
  40172e:	8d 46 ff             	lea    -0x1(%rsi),%eax
  401731:	48 98                	cltq   
  401733:	48 8d 14 80          	lea    (%rax,%rax,4),%rdx
  401737:	48 c1 e2 04          	shl    $0x4,%rdx
  40173b:	48 81 c2 c0 4b 60 00 	add    $0x604bc0,%rdx
  401742:	b8 00 00 00 00       	mov    $0x0,%eax
  401747:	48 c7 c1 ff ff ff ff 	mov    $0xffffffffffffffff,%rcx
  40174e:	48 89 d7             	mov    %rdx,%rdi
  401751:	f2 ae                	repnz scas %es:(%rdi),%al
  401753:	48 f7 d1             	not    %rcx
  401756:	48 83 c1 63          	add    $0x63,%rcx
  40175a:	48 81 f9 00 20 00 00 	cmp    $0x2000,%rcx
  401761:	76 19                	jbe    40177c <send_msg+0x71>
  401763:	be 48 29 40 00       	mov    $0x402948,%esi
  401768:	bf 01 00 00 00       	mov    $0x1,%edi
  40176d:	e8 2e f5 ff ff       	callq  400ca0 <__printf_chk@plt>
  401772:	bf 08 00 00 00       	mov    $0x8,%edi
  401777:	e8 54 f5 ff ff       	callq  400cd0 <exit@plt>
  40177c:	45 85 c0             	test   %r8d,%r8d
  40177f:	41 b9 4c 2a 40 00    	mov    $0x402a4c,%r9d
  401785:	b8 44 2a 40 00       	mov    $0x402a44,%eax
  40178a:	4c 0f 45 c8          	cmovne %rax,%r9
  40178e:	52                   	push   %rdx
  40178f:	56                   	push   %rsi
  401790:	44 8b 05 c9 2f 20 00 	mov    0x202fc9(%rip),%r8d        # 604760 <bomb_id>
  401797:	b9 55 2a 40 00       	mov    $0x402a55,%ecx
  40179c:	ba 00 20 00 00       	mov    $0x2000,%edx
  4017a1:	be 01 00 00 00       	mov    $0x1,%esi
  4017a6:	48 8d 7c 24 10       	lea    0x10(%rsp),%rdi
  4017ab:	b8 00 00 00 00       	mov    $0x0,%eax
  4017b0:	e8 6b f5 ff ff       	callq  400d20 <__sprintf_chk@plt>
  4017b5:	48 8d 8c 24 10 20 00 	lea    0x2010(%rsp),%rcx
  4017bc:	00 
  4017bd:	ba 00 00 00 00       	mov    $0x0,%edx
  4017c2:	48 8d 74 24 10       	lea    0x10(%rsp),%rsi
  4017c7:	bf 60 43 60 00       	mov    $0x604360,%edi
  4017cc:	e8 23 0d 00 00       	callq  4024f4 <driver_post>
  4017d1:	48 83 c4 10          	add    $0x10,%rsp
  4017d5:	85 c0                	test   %eax,%eax
  4017d7:	79 17                	jns    4017f0 <send_msg+0xe5>
  4017d9:	48 8d bc 24 00 20 00 	lea    0x2000(%rsp),%rdi
  4017e0:	00 
  4017e1:	e8 ca f3 ff ff       	callq  400bb0 <puts@plt>
  4017e6:	bf 00 00 00 00       	mov    $0x0,%edi
  4017eb:	e8 e0 f4 ff ff       	callq  400cd0 <exit@plt>
  4017f0:	48 8b 84 24 08 40 00 	mov    0x4008(%rsp),%rax
  4017f7:	00 
  4017f8:	64 48 33 04 25 28 00 	xor    %fs:0x28,%rax
  4017ff:	00 00 
  401801:	74 05                	je     401808 <send_msg+0xfd>
  401803:	e8 c8 f3 ff ff       	callq  400bd0 <__stack_chk_fail@plt>
  401808:	48 81 c4 18 40 00 00 	add    $0x4018,%rsp
  40180f:	c3                   	retq   

0000000000401810 <explode_bomb>:
  401810:	48 83 ec 08          	sub    $0x8,%rsp
  401814:	bf 61 2a 40 00       	mov    $0x402a61,%edi
  401819:	e8 92 f3 ff ff       	callq  400bb0 <puts@plt>
  40181e:	bf 6a 2a 40 00       	mov    $0x402a6a,%edi
  401823:	e8 88 f3 ff ff       	callq  400bb0 <puts@plt>
  401828:	bf 00 00 00 00       	mov    $0x0,%edi
  40182d:	e8 d9 fe ff ff       	callq  40170b <send_msg>
  401832:	bf 70 29 40 00       	mov    $0x402970,%edi
  401837:	e8 74 f3 ff ff       	callq  400bb0 <puts@plt>
  40183c:	bf 08 00 00 00       	mov    $0x8,%edi
  401841:	e8 8a f4 ff ff       	callq  400cd0 <exit@plt>

0000000000401846 <read_six_numbers>:
  401846:	48 83 ec 08          	sub    $0x8,%rsp
  40184a:	48 89 f2             	mov    %rsi,%rdx
  40184d:	48 8d 4e 04          	lea    0x4(%rsi),%rcx
  401851:	48 8d 46 14          	lea    0x14(%rsi),%rax
  401855:	50                   	push   %rax
  401856:	48 8d 46 10          	lea    0x10(%rsi),%rax
  40185a:	50                   	push   %rax
  40185b:	4c 8d 4e 0c          	lea    0xc(%rsi),%r9
  40185f:	4c 8d 46 08          	lea    0x8(%rsi),%r8
  401863:	be 81 2a 40 00       	mov    $0x402a81,%esi
  401868:	b8 00 00 00 00       	mov    $0x0,%eax
  40186d:	e8 1e f4 ff ff       	callq  400c90 <__isoc99_sscanf@plt>
  401872:	48 83 c4 10          	add    $0x10,%rsp
  401876:	83 f8 05             	cmp    $0x5,%eax
  401879:	7f 05                	jg     401880 <read_six_numbers+0x3a>
  40187b:	e8 90 ff ff ff       	callq  401810 <explode_bomb>
  401880:	48 83 c4 08          	add    $0x8,%rsp
  401884:	c3                   	retq   

0000000000401885 <read_line>:
  401885:	48 83 ec 08          	sub    $0x8,%rsp
  401889:	b8 00 00 00 00       	mov    $0x0,%eax
  40188e:	e8 37 fe ff ff       	callq  4016ca <skip>
  401893:	48 85 c0             	test   %rax,%rax
  401896:	75 6e                	jne    401906 <read_line+0x81>
  401898:	48 8b 05 f1 32 20 00 	mov    0x2032f1(%rip),%rax        # 604b90 <stdin@@GLIBC_2.2.5>
  40189f:	48 39 05 0a 33 20 00 	cmp    %rax,0x20330a(%rip)        # 604bb0 <infile>
  4018a6:	75 14                	jne    4018bc <read_line+0x37>
  4018a8:	bf 93 2a 40 00       	mov    $0x402a93,%edi
  4018ad:	e8 fe f2 ff ff       	callq  400bb0 <puts@plt>
  4018b2:	bf 08 00 00 00       	mov    $0x8,%edi
  4018b7:	e8 14 f4 ff ff       	callq  400cd0 <exit@plt>
  4018bc:	bf b1 2a 40 00       	mov    $0x402ab1,%edi
  4018c1:	e8 aa f2 ff ff       	callq  400b70 <getenv@plt>
  4018c6:	48 85 c0             	test   %rax,%rax
  4018c9:	74 0a                	je     4018d5 <read_line+0x50>
  4018cb:	bf 00 00 00 00       	mov    $0x0,%edi
  4018d0:	e8 fb f3 ff ff       	callq  400cd0 <exit@plt>
  4018d5:	48 8b 05 b4 32 20 00 	mov    0x2032b4(%rip),%rax        # 604b90 <stdin@@GLIBC_2.2.5>
  4018dc:	48 89 05 cd 32 20 00 	mov    %rax,0x2032cd(%rip)        # 604bb0 <infile>
  4018e3:	b8 00 00 00 00       	mov    $0x0,%eax
  4018e8:	e8 dd fd ff ff       	callq  4016ca <skip>
  4018ed:	48 85 c0             	test   %rax,%rax
  4018f0:	75 14                	jne    401906 <read_line+0x81>
  4018f2:	bf 93 2a 40 00       	mov    $0x402a93,%edi
  4018f7:	e8 b4 f2 ff ff       	callq  400bb0 <puts@plt>
  4018fc:	bf 00 00 00 00       	mov    $0x0,%edi
  401901:	e8 ca f3 ff ff       	callq  400cd0 <exit@plt>
  401906:	8b 35 a0 32 20 00    	mov    0x2032a0(%rip),%esi        # 604bac <num_input_strings>
  40190c:	48 63 c6             	movslq %esi,%rax
  40190f:	48 8d 14 80          	lea    (%rax,%rax,4),%rdx
  401913:	48 c1 e2 04          	shl    $0x4,%rdx
  401917:	48 81 c2 c0 4b 60 00 	add    $0x604bc0,%rdx
  40191e:	b8 00 00 00 00       	mov    $0x0,%eax
  401923:	48 c7 c1 ff ff ff ff 	mov    $0xffffffffffffffff,%rcx
  40192a:	48 89 d7             	mov    %rdx,%rdi
  40192d:	f2 ae                	repnz scas %es:(%rdi),%al
  40192f:	48 f7 d1             	not    %rcx
  401932:	48 83 e9 01          	sub    $0x1,%rcx
  401936:	83 f9 4e             	cmp    $0x4e,%ecx
  401939:	7e 46                	jle    401981 <read_line+0xfc>
  40193b:	bf bc 2a 40 00       	mov    $0x402abc,%edi
  401940:	e8 6b f2 ff ff       	callq  400bb0 <puts@plt>
  401945:	8b 05 61 32 20 00    	mov    0x203261(%rip),%eax        # 604bac <num_input_strings>
  40194b:	8d 50 01             	lea    0x1(%rax),%edx
  40194e:	89 15 58 32 20 00    	mov    %edx,0x203258(%rip)        # 604bac <num_input_strings>
  401954:	48 98                	cltq   
  401956:	48 6b c0 50          	imul   $0x50,%rax,%rax
  40195a:	48 bf 2a 2a 2a 74 72 	movabs $0x636e7572742a2a2a,%rdi
  401961:	75 6e 63 
  401964:	48 89 b8 c0 4b 60 00 	mov    %rdi,0x604bc0(%rax)
  40196b:	48 bf 61 74 65 64 2a 	movabs $0x2a2a2a64657461,%rdi
  401972:	2a 2a 00 
  401975:	48 89 b8 c8 4b 60 00 	mov    %rdi,0x604bc8(%rax)
  40197c:	e8 8f fe ff ff       	callq  401810 <explode_bomb>
  401981:	83 e9 01             	sub    $0x1,%ecx
  401984:	48 63 c9             	movslq %ecx,%rcx
  401987:	48 63 c6             	movslq %esi,%rax
  40198a:	48 8d 04 80          	lea    (%rax,%rax,4),%rax
  40198e:	48 c1 e0 04          	shl    $0x4,%rax
  401992:	c6 84 01 c0 4b 60 00 	movb   $0x0,0x604bc0(%rcx,%rax,1)
  401999:	00 
  40199a:	8d 46 01             	lea    0x1(%rsi),%eax
  40199d:	89 05 09 32 20 00    	mov    %eax,0x203209(%rip)        # 604bac <num_input_strings>
  4019a3:	48 89 d0             	mov    %rdx,%rax
  4019a6:	48 83 c4 08          	add    $0x8,%rsp
  4019aa:	c3                   	retq   

00000000004019ab <phase_defused>:
  4019ab:	48 83 ec 08          	sub    $0x8,%rsp
  4019af:	bf 01 00 00 00       	mov    $0x1,%edi
  4019b4:	e8 52 fd ff ff       	callq  40170b <send_msg>
  4019b9:	83 3d ec 31 20 00 09 	cmpl   $0x9,0x2031ec(%rip)        # 604bac <num_input_strings>
  4019c0:	75 14                	jne    4019d6 <phase_defused+0x2b>
  4019c2:	bf 98 29 40 00       	mov    $0x402998,%edi
  4019c7:	e8 e4 f1 ff ff       	callq  400bb0 <puts@plt>
  4019cc:	bf c8 29 40 00       	mov    $0x4029c8,%edi
  4019d1:	e8 da f1 ff ff       	callq  400bb0 <puts@plt>
  4019d6:	48 83 c4 08          	add    $0x8,%rsp
  4019da:	c3                   	retq   

00000000004019db <sigalrm_handler>:
  4019db:	48 83 ec 08          	sub    $0x8,%rsp
  4019df:	b9 00 00 00 00       	mov    $0x0,%ecx
  4019e4:	ba 30 2f 40 00       	mov    $0x402f30,%edx
  4019e9:	be 01 00 00 00       	mov    $0x1,%esi
  4019ee:	48 8b 3d ab 31 20 00 	mov    0x2031ab(%rip),%rdi        # 604ba0 <stderr@@GLIBC_2.2.5>
  4019f5:	b8 00 00 00 00       	mov    $0x0,%eax
  4019fa:	e8 f1 f2 ff ff       	callq  400cf0 <__fprintf_chk@plt>
  4019ff:	bf 01 00 00 00       	mov    $0x1,%edi
  401a04:	e8 c7 f2 ff ff       	callq  400cd0 <exit@plt>

0000000000401a09 <rio_readlineb>:
  401a09:	41 56                	push   %r14
  401a0b:	41 55                	push   %r13
  401a0d:	41 54                	push   %r12
  401a0f:	55                   	push   %rbp
  401a10:	53                   	push   %rbx
  401a11:	48 83 ec 10          	sub    $0x10,%rsp
  401a15:	48 89 fb             	mov    %rdi,%rbx
  401a18:	49 89 f5             	mov    %rsi,%r13
  401a1b:	49 89 d6             	mov    %rdx,%r14
  401a1e:	64 48 8b 04 25 28 00 	mov    %fs:0x28,%rax
  401a25:	00 00 
  401a27:	48 89 44 24 08       	mov    %rax,0x8(%rsp)
  401a2c:	31 c0                	xor    %eax,%eax
  401a2e:	41 bc 01 00 00 00    	mov    $0x1,%r12d
  401a34:	48 8d 6f 10          	lea    0x10(%rdi),%rbp
  401a38:	48 83 fa 01          	cmp    $0x1,%rdx
  401a3c:	77 2c                	ja     401a6a <rio_readlineb+0x61>
  401a3e:	eb 6d                	jmp    401aad <rio_readlineb+0xa4>
  401a40:	ba 00 20 00 00       	mov    $0x2000,%edx
  401a45:	48 89 ee             	mov    %rbp,%rsi
  401a48:	8b 3b                	mov    (%rbx),%edi
  401a4a:	e8 b1 f1 ff ff       	callq  400c00 <read@plt>
  401a4f:	89 43 04             	mov    %eax,0x4(%rbx)
  401a52:	85 c0                	test   %eax,%eax
  401a54:	79 0c                	jns    401a62 <rio_readlineb+0x59>
  401a56:	e8 35 f1 ff ff       	callq  400b90 <__errno_location@plt>
  401a5b:	83 38 04             	cmpl   $0x4,(%rax)
  401a5e:	74 0a                	je     401a6a <rio_readlineb+0x61>
  401a60:	eb 6c                	jmp    401ace <rio_readlineb+0xc5>
  401a62:	85 c0                	test   %eax,%eax
  401a64:	74 71                	je     401ad7 <rio_readlineb+0xce>
  401a66:	48 89 6b 08          	mov    %rbp,0x8(%rbx)
  401a6a:	8b 43 04             	mov    0x4(%rbx),%eax
  401a6d:	85 c0                	test   %eax,%eax
  401a6f:	7e cf                	jle    401a40 <rio_readlineb+0x37>
  401a71:	48 8b 53 08          	mov    0x8(%rbx),%rdx
  401a75:	0f b6 0a             	movzbl (%rdx),%ecx
  401a78:	88 4c 24 07          	mov    %cl,0x7(%rsp)
  401a7c:	48 83 c2 01          	add    $0x1,%rdx
  401a80:	48 89 53 08          	mov    %rdx,0x8(%rbx)
  401a84:	83 e8 01             	sub    $0x1,%eax
  401a87:	89 43 04             	mov    %eax,0x4(%rbx)
  401a8a:	49 83 c5 01          	add    $0x1,%r13
  401a8e:	41 88 4d ff          	mov    %cl,-0x1(%r13)
  401a92:	80 f9 0a             	cmp    $0xa,%cl
  401a95:	75 0a                	jne    401aa1 <rio_readlineb+0x98>
  401a97:	eb 14                	jmp    401aad <rio_readlineb+0xa4>
  401a99:	41 83 fc 01          	cmp    $0x1,%r12d
  401a9d:	75 0e                	jne    401aad <rio_readlineb+0xa4>
  401a9f:	eb 16                	jmp    401ab7 <rio_readlineb+0xae>
  401aa1:	41 83 c4 01          	add    $0x1,%r12d
  401aa5:	49 63 c4             	movslq %r12d,%rax
  401aa8:	4c 39 f0             	cmp    %r14,%rax
  401aab:	72 bd                	jb     401a6a <rio_readlineb+0x61>
  401aad:	41 c6 45 00 00       	movb   $0x0,0x0(%r13)
  401ab2:	49 63 c4             	movslq %r12d,%rax
  401ab5:	eb 05                	jmp    401abc <rio_readlineb+0xb3>
  401ab7:	b8 00 00 00 00       	mov    $0x0,%eax
  401abc:	48 8b 4c 24 08       	mov    0x8(%rsp),%rcx
  401ac1:	64 48 33 0c 25 28 00 	xor    %fs:0x28,%rcx
  401ac8:	00 00 
  401aca:	74 22                	je     401aee <rio_readlineb+0xe5>
  401acc:	eb 1b                	jmp    401ae9 <rio_readlineb+0xe0>
  401ace:	48 c7 c0 ff ff ff ff 	mov    $0xffffffffffffffff,%rax
  401ad5:	eb 05                	jmp    401adc <rio_readlineb+0xd3>
  401ad7:	b8 00 00 00 00       	mov    $0x0,%eax
  401adc:	85 c0                	test   %eax,%eax
  401ade:	74 b9                	je     401a99 <rio_readlineb+0x90>
  401ae0:	48 c7 c0 ff ff ff ff 	mov    $0xffffffffffffffff,%rax
  401ae7:	eb d3                	jmp    401abc <rio_readlineb+0xb3>
  401ae9:	e8 e2 f0 ff ff       	callq  400bd0 <__stack_chk_fail@plt>
  401aee:	48 83 c4 10          	add    $0x10,%rsp
  401af2:	5b                   	pop    %rbx
  401af3:	5d                   	pop    %rbp
  401af4:	41 5c                	pop    %r12
  401af6:	41 5d                	pop    %r13
  401af8:	41 5e                	pop    %r14
  401afa:	c3                   	retq   

0000000000401afb <submitr>:
  401afb:	41 57                	push   %r15
  401afd:	41 56                	push   %r14
  401aff:	41 55                	push   %r13
  401b01:	41 54                	push   %r12
  401b03:	55                   	push   %rbp
  401b04:	53                   	push   %rbx
  401b05:	48 81 ec 68 a0 00 00 	sub    $0xa068,%rsp
  401b0c:	48 89 fd             	mov    %rdi,%rbp
  401b0f:	41 89 f5             	mov    %esi,%r13d
  401b12:	48 89 54 24 08       	mov    %rdx,0x8(%rsp)
  401b17:	48 89 4c 24 10       	mov    %rcx,0x10(%rsp)
  401b1c:	4c 89 44 24 18       	mov    %r8,0x18(%rsp)
  401b21:	4c 89 cb             	mov    %r9,%rbx
  401b24:	4c 8b bc 24 a0 a0 00 	mov    0xa0a0(%rsp),%r15
  401b2b:	00 
  401b2c:	64 48 8b 04 25 28 00 	mov    %fs:0x28,%rax
  401b33:	00 00 
  401b35:	48 89 84 24 58 a0 00 	mov    %rax,0xa058(%rsp)
  401b3c:	00 
  401b3d:	31 c0                	xor    %eax,%eax
  401b3f:	c7 44 24 2c 00 00 00 	movl   $0x0,0x2c(%rsp)
  401b46:	00 
  401b47:	ba 00 00 00 00       	mov    $0x0,%edx
  401b4c:	be 01 00 00 00       	mov    $0x1,%esi
  401b51:	bf 02 00 00 00       	mov    $0x2,%edi
  401b56:	e8 d5 f1 ff ff       	callq  400d30 <socket@plt>
  401b5b:	85 c0                	test   %eax,%eax
  401b5d:	79 50                	jns    401baf <submitr+0xb4>
  401b5f:	48 b8 45 72 72 6f 72 	movabs $0x43203a726f727245,%rax
  401b66:	3a 20 43 
  401b69:	49 89 07             	mov    %rax,(%r15)
  401b6c:	48 b8 6c 69 65 6e 74 	movabs $0x6e7520746e65696c,%rax
  401b73:	20 75 6e 
  401b76:	49 89 47 08          	mov    %rax,0x8(%r15)
  401b7a:	48 b8 61 62 6c 65 20 	movabs $0x206f7420656c6261,%rax
  401b81:	74 6f 20 
  401b84:	49 89 47 10          	mov    %rax,0x10(%r15)
  401b88:	48 b8 63 72 65 61 74 	movabs $0x7320657461657263,%rax
  401b8f:	65 20 73 
  401b92:	49 89 47 18          	mov    %rax,0x18(%r15)
  401b96:	41 c7 47 20 6f 63 6b 	movl   $0x656b636f,0x20(%r15)
  401b9d:	65 
  401b9e:	66 41 c7 47 24 74 00 	movw   $0x74,0x24(%r15)
  401ba5:	b8 ff ff ff ff       	mov    $0xffffffff,%eax
  401baa:	e9 15 06 00 00       	jmpq   4021c4 <submitr+0x6c9>
  401baf:	41 89 c4             	mov    %eax,%r12d
  401bb2:	48 89 ef             	mov    %rbp,%rdi
  401bb5:	e8 86 f0 ff ff       	callq  400c40 <gethostbyname@plt>
  401bba:	48 85 c0             	test   %rax,%rax
  401bbd:	75 6b                	jne    401c2a <submitr+0x12f>
  401bbf:	48 b8 45 72 72 6f 72 	movabs $0x44203a726f727245,%rax
  401bc6:	3a 20 44 
  401bc9:	49 89 07             	mov    %rax,(%r15)
  401bcc:	48 b8 4e 53 20 69 73 	movabs $0x6e7520736920534e,%rax
  401bd3:	20 75 6e 
  401bd6:	49 89 47 08          	mov    %rax,0x8(%r15)
  401bda:	48 b8 61 62 6c 65 20 	movabs $0x206f7420656c6261,%rax
  401be1:	74 6f 20 
  401be4:	49 89 47 10          	mov    %rax,0x10(%r15)
  401be8:	48 b8 72 65 73 6f 6c 	movabs $0x2065766c6f736572,%rax
  401bef:	76 65 20 
  401bf2:	49 89 47 18          	mov    %rax,0x18(%r15)
  401bf6:	48 b8 73 65 72 76 65 	movabs $0x6120726576726573,%rax
  401bfd:	72 20 61 
  401c00:	49 89 47 20          	mov    %rax,0x20(%r15)
  401c04:	41 c7 47 28 64 64 72 	movl   $0x65726464,0x28(%r15)
  401c0b:	65 
  401c0c:	66 41 c7 47 2c 73 73 	movw   $0x7373,0x2c(%r15)
  401c13:	41 c6 47 2e 00       	movb   $0x0,0x2e(%r15)
  401c18:	44 89 e7             	mov    %r12d,%edi
  401c1b:	e8 d0 ef ff ff       	callq  400bf0 <close@plt>
  401c20:	b8 ff ff ff ff       	mov    $0xffffffff,%eax
  401c25:	e9 9a 05 00 00       	jmpq   4021c4 <submitr+0x6c9>
  401c2a:	48 c7 44 24 30 00 00 	movq   $0x0,0x30(%rsp)
  401c31:	00 00 
  401c33:	48 c7 44 24 38 00 00 	movq   $0x0,0x38(%rsp)
  401c3a:	00 00 
  401c3c:	66 c7 44 24 30 02 00 	movw   $0x2,0x30(%rsp)
  401c43:	48 63 50 14          	movslq 0x14(%rax),%rdx
  401c47:	48 8b 40 18          	mov    0x18(%rax),%rax
  401c4b:	48 8d 7c 24 34       	lea    0x34(%rsp),%rdi
  401c50:	b9 0c 00 00 00       	mov    $0xc,%ecx
  401c55:	48 8b 30             	mov    (%rax),%rsi
  401c58:	e8 f3 ef ff ff       	callq  400c50 <__memmove_chk@plt>
  401c5d:	66 41 c1 cd 08       	ror    $0x8,%r13w
  401c62:	66 44 89 6c 24 32    	mov    %r13w,0x32(%rsp)
  401c68:	ba 10 00 00 00       	mov    $0x10,%edx
  401c6d:	48 8d 74 24 30       	lea    0x30(%rsp),%rsi
  401c72:	44 89 e7             	mov    %r12d,%edi
  401c75:	e8 66 f0 ff ff       	callq  400ce0 <connect@plt>
  401c7a:	85 c0                	test   %eax,%eax
  401c7c:	79 5d                	jns    401cdb <submitr+0x1e0>
  401c7e:	48 b8 45 72 72 6f 72 	movabs $0x55203a726f727245,%rax
  401c85:	3a 20 55 
  401c88:	49 89 07             	mov    %rax,(%r15)
  401c8b:	48 b8 6e 61 62 6c 65 	movabs $0x6f7420656c62616e,%rax
  401c92:	20 74 6f 
  401c95:	49 89 47 08          	mov    %rax,0x8(%r15)
  401c99:	48 b8 20 63 6f 6e 6e 	movabs $0x7463656e6e6f6320,%rax
  401ca0:	65 63 74 
  401ca3:	49 89 47 10          	mov    %rax,0x10(%r15)
  401ca7:	48 b8 20 74 6f 20 74 	movabs $0x20656874206f7420,%rax
  401cae:	68 65 20 
  401cb1:	49 89 47 18          	mov    %rax,0x18(%r15)
  401cb5:	41 c7 47 20 73 65 72 	movl   $0x76726573,0x20(%r15)
  401cbc:	76 
  401cbd:	66 41 c7 47 24 65 72 	movw   $0x7265,0x24(%r15)
  401cc4:	41 c6 47 26 00       	movb   $0x0,0x26(%r15)
  401cc9:	44 89 e7             	mov    %r12d,%edi
  401ccc:	e8 1f ef ff ff       	callq  400bf0 <close@plt>
  401cd1:	b8 ff ff ff ff       	mov    $0xffffffff,%eax
  401cd6:	e9 e9 04 00 00       	jmpq   4021c4 <submitr+0x6c9>
  401cdb:	49 c7 c1 ff ff ff ff 	mov    $0xffffffffffffffff,%r9
  401ce2:	b8 00 00 00 00       	mov    $0x0,%eax
  401ce7:	4c 89 c9             	mov    %r9,%rcx
  401cea:	48 89 df             	mov    %rbx,%rdi
  401ced:	f2 ae                	repnz scas %es:(%rdi),%al
  401cef:	48 f7 d1             	not    %rcx
  401cf2:	48 89 ce             	mov    %rcx,%rsi
  401cf5:	4c 89 c9             	mov    %r9,%rcx
  401cf8:	48 8b 7c 24 08       	mov    0x8(%rsp),%rdi
  401cfd:	f2 ae                	repnz scas %es:(%rdi),%al
  401cff:	49 89 c8             	mov    %rcx,%r8
  401d02:	4c 89 c9             	mov    %r9,%rcx
  401d05:	48 8b 7c 24 10       	mov    0x10(%rsp),%rdi
  401d0a:	f2 ae                	repnz scas %es:(%rdi),%al
  401d0c:	48 f7 d1             	not    %rcx
  401d0f:	48 89 ca             	mov    %rcx,%rdx
  401d12:	4c 89 c9             	mov    %r9,%rcx
  401d15:	48 8b 7c 24 18       	mov    0x18(%rsp),%rdi
  401d1a:	f2 ae                	repnz scas %es:(%rdi),%al
  401d1c:	4c 29 c2             	sub    %r8,%rdx
  401d1f:	48 29 ca             	sub    %rcx,%rdx
  401d22:	48 8d 44 76 fd       	lea    -0x3(%rsi,%rsi,2),%rax
  401d27:	48 8d 44 02 7b       	lea    0x7b(%rdx,%rax,1),%rax
  401d2c:	48 3d 00 20 00 00    	cmp    $0x2000,%rax
  401d32:	76 73                	jbe    401da7 <submitr+0x2ac>
  401d34:	48 b8 45 72 72 6f 72 	movabs $0x52203a726f727245,%rax
  401d3b:	3a 20 52 
  401d3e:	49 89 07             	mov    %rax,(%r15)
  401d41:	48 b8 65 73 75 6c 74 	movabs $0x747320746c757365,%rax
  401d48:	20 73 74 
  401d4b:	49 89 47 08          	mov    %rax,0x8(%r15)
  401d4f:	48 b8 72 69 6e 67 20 	movabs $0x6f6f7420676e6972,%rax
  401d56:	74 6f 6f 
  401d59:	49 89 47 10          	mov    %rax,0x10(%r15)
  401d5d:	48 b8 20 6c 61 72 67 	movabs $0x202e656772616c20,%rax
  401d64:	65 2e 20 
  401d67:	49 89 47 18          	mov    %rax,0x18(%r15)
  401d6b:	48 b8 49 6e 63 72 65 	movabs $0x6573616572636e49,%rax
  401d72:	61 73 65 
  401d75:	49 89 47 20          	mov    %rax,0x20(%r15)
  401d79:	48 b8 20 53 55 42 4d 	movabs $0x5254494d42555320,%rax
  401d80:	49 54 52 
  401d83:	49 89 47 28          	mov    %rax,0x28(%r15)
  401d87:	48 b8 5f 4d 41 58 42 	movabs $0x46554258414d5f,%rax
  401d8e:	55 46 00 
  401d91:	49 89 47 30          	mov    %rax,0x30(%r15)
  401d95:	44 89 e7             	mov    %r12d,%edi
  401d98:	e8 53 ee ff ff       	callq  400bf0 <close@plt>
  401d9d:	b8 ff ff ff ff       	mov    $0xffffffff,%eax
  401da2:	e9 1d 04 00 00       	jmpq   4021c4 <submitr+0x6c9>
  401da7:	48 8d 94 24 50 40 00 	lea    0x4050(%rsp),%rdx
  401dae:	00 
  401daf:	b9 00 04 00 00       	mov    $0x400,%ecx
  401db4:	b8 00 00 00 00       	mov    $0x0,%eax
  401db9:	48 89 d7             	mov    %rdx,%rdi
  401dbc:	f3 48 ab             	rep stos %rax,%es:(%rdi)
  401dbf:	48 c7 c1 ff ff ff ff 	mov    $0xffffffffffffffff,%rcx
  401dc6:	48 89 df             	mov    %rbx,%rdi
  401dc9:	f2 ae                	repnz scas %es:(%rdi),%al
  401dcb:	48 89 c8             	mov    %rcx,%rax
  401dce:	48 f7 d0             	not    %rax
  401dd1:	48 83 e8 01          	sub    $0x1,%rax
  401dd5:	85 c0                	test   %eax,%eax
  401dd7:	0f 84 90 04 00 00    	je     40226d <submitr+0x772>
  401ddd:	8d 40 ff             	lea    -0x1(%rax),%eax
  401de0:	4c 8d 74 03 01       	lea    0x1(%rbx,%rax,1),%r14
  401de5:	48 89 d5             	mov    %rdx,%rbp
  401de8:	49 bd d9 ff 00 00 00 	movabs $0x2000000000ffd9,%r13
  401def:	00 20 00 
  401df2:	44 0f b6 03          	movzbl (%rbx),%r8d
  401df6:	41 8d 40 d6          	lea    -0x2a(%r8),%eax
  401dfa:	3c 35                	cmp    $0x35,%al
  401dfc:	77 06                	ja     401e04 <submitr+0x309>
  401dfe:	49 0f a3 c5          	bt     %rax,%r13
  401e02:	72 0d                	jb     401e11 <submitr+0x316>
  401e04:	44 89 c0             	mov    %r8d,%eax
  401e07:	83 e0 df             	and    $0xffffffdf,%eax
  401e0a:	83 e8 41             	sub    $0x41,%eax
  401e0d:	3c 19                	cmp    $0x19,%al
  401e0f:	77 0a                	ja     401e1b <submitr+0x320>
  401e11:	44 88 45 00          	mov    %r8b,0x0(%rbp)
  401e15:	48 8d 6d 01          	lea    0x1(%rbp),%rbp
  401e19:	eb 6c                	jmp    401e87 <submitr+0x38c>
  401e1b:	41 80 f8 20          	cmp    $0x20,%r8b
  401e1f:	75 0a                	jne    401e2b <submitr+0x330>
  401e21:	c6 45 00 2b          	movb   $0x2b,0x0(%rbp)
  401e25:	48 8d 6d 01          	lea    0x1(%rbp),%rbp
  401e29:	eb 5c                	jmp    401e87 <submitr+0x38c>
  401e2b:	41 8d 40 e0          	lea    -0x20(%r8),%eax
  401e2f:	3c 5f                	cmp    $0x5f,%al
  401e31:	76 0a                	jbe    401e3d <submitr+0x342>
  401e33:	41 80 f8 09          	cmp    $0x9,%r8b
  401e37:	0f 85 a3 03 00 00    	jne    4021e0 <submitr+0x6e5>
  401e3d:	45 0f b6 c0          	movzbl %r8b,%r8d
  401e41:	b9 00 30 40 00       	mov    $0x403000,%ecx
  401e46:	ba 08 00 00 00       	mov    $0x8,%edx
  401e4b:	be 01 00 00 00       	mov    $0x1,%esi
  401e50:	48 8d bc 24 50 80 00 	lea    0x8050(%rsp),%rdi
  401e57:	00 
  401e58:	b8 00 00 00 00       	mov    $0x0,%eax
  401e5d:	e8 be ee ff ff       	callq  400d20 <__sprintf_chk@plt>
  401e62:	0f b6 84 24 50 80 00 	movzbl 0x8050(%rsp),%eax
  401e69:	00 
  401e6a:	88 45 00             	mov    %al,0x0(%rbp)
  401e6d:	0f b6 84 24 51 80 00 	movzbl 0x8051(%rsp),%eax
  401e74:	00 
  401e75:	88 45 01             	mov    %al,0x1(%rbp)
  401e78:	0f b6 84 24 52 80 00 	movzbl 0x8052(%rsp),%eax
  401e7f:	00 
  401e80:	88 45 02             	mov    %al,0x2(%rbp)
  401e83:	48 8d 6d 03          	lea    0x3(%rbp),%rbp
  401e87:	48 83 c3 01          	add    $0x1,%rbx
  401e8b:	49 39 de             	cmp    %rbx,%r14
  401e8e:	0f 85 5e ff ff ff    	jne    401df2 <submitr+0x2f7>
  401e94:	e9 d4 03 00 00       	jmpq   40226d <submitr+0x772>
  401e99:	48 89 da             	mov    %rbx,%rdx
  401e9c:	48 89 ee             	mov    %rbp,%rsi
  401e9f:	44 89 e7             	mov    %r12d,%edi
  401ea2:	e8 19 ed ff ff       	callq  400bc0 <write@plt>
  401ea7:	48 85 c0             	test   %rax,%rax
  401eaa:	7f 0f                	jg     401ebb <submitr+0x3c0>
  401eac:	e8 df ec ff ff       	callq  400b90 <__errno_location@plt>
  401eb1:	83 38 04             	cmpl   $0x4,(%rax)
  401eb4:	75 12                	jne    401ec8 <submitr+0x3cd>
  401eb6:	b8 00 00 00 00       	mov    $0x0,%eax
  401ebb:	48 01 c5             	add    %rax,%rbp
  401ebe:	48 29 c3             	sub    %rax,%rbx
  401ec1:	75 d6                	jne    401e99 <submitr+0x39e>
  401ec3:	4d 85 ed             	test   %r13,%r13
  401ec6:	79 5f                	jns    401f27 <submitr+0x42c>
  401ec8:	48 b8 45 72 72 6f 72 	movabs $0x43203a726f727245,%rax
  401ecf:	3a 20 43 
  401ed2:	49 89 07             	mov    %rax,(%r15)
  401ed5:	48 b8 6c 69 65 6e 74 	movabs $0x6e7520746e65696c,%rax
  401edc:	20 75 6e 
  401edf:	49 89 47 08          	mov    %rax,0x8(%r15)
  401ee3:	48 b8 61 62 6c 65 20 	movabs $0x206f7420656c6261,%rax
  401eea:	74 6f 20 
  401eed:	49 89 47 10          	mov    %rax,0x10(%r15)
  401ef1:	48 b8 77 72 69 74 65 	movabs $0x6f74206574697277,%rax
  401ef8:	20 74 6f 
  401efb:	49 89 47 18          	mov    %rax,0x18(%r15)
  401eff:	48 b8 20 74 68 65 20 	movabs $0x7265732065687420,%rax
  401f06:	73 65 72 
  401f09:	49 89 47 20          	mov    %rax,0x20(%r15)
  401f0d:	41 c7 47 28 76 65 72 	movl   $0x726576,0x28(%r15)
  401f14:	00 
  401f15:	44 89 e7             	mov    %r12d,%edi
  401f18:	e8 d3 ec ff ff       	callq  400bf0 <close@plt>
  401f1d:	b8 ff ff ff ff       	mov    $0xffffffff,%eax
  401f22:	e9 9d 02 00 00       	jmpq   4021c4 <submitr+0x6c9>
  401f27:	44 89 64 24 40       	mov    %r12d,0x40(%rsp)
  401f2c:	c7 44 24 44 00 00 00 	movl   $0x0,0x44(%rsp)
  401f33:	00 
  401f34:	48 8d 44 24 50       	lea    0x50(%rsp),%rax
  401f39:	48 89 44 24 48       	mov    %rax,0x48(%rsp)
  401f3e:	ba 00 20 00 00       	mov    $0x2000,%edx
  401f43:	48 8d b4 24 50 20 00 	lea    0x2050(%rsp),%rsi
  401f4a:	00 
  401f4b:	48 8d 7c 24 40       	lea    0x40(%rsp),%rdi
  401f50:	e8 b4 fa ff ff       	callq  401a09 <rio_readlineb>
  401f55:	48 85 c0             	test   %rax,%rax
  401f58:	7f 74                	jg     401fce <submitr+0x4d3>
  401f5a:	48 b8 45 72 72 6f 72 	movabs $0x43203a726f727245,%rax
  401f61:	3a 20 43 
  401f64:	49 89 07             	mov    %rax,(%r15)
  401f67:	48 b8 6c 69 65 6e 74 	movabs $0x6e7520746e65696c,%rax
  401f6e:	20 75 6e 
  401f71:	49 89 47 08          	mov    %rax,0x8(%r15)
  401f75:	48 b8 61 62 6c 65 20 	movabs $0x206f7420656c6261,%rax
  401f7c:	74 6f 20 
  401f7f:	49 89 47 10          	mov    %rax,0x10(%r15)
  401f83:	48 b8 72 65 61 64 20 	movabs $0x7269662064616572,%rax
  401f8a:	66 69 72 
  401f8d:	49 89 47 18          	mov    %rax,0x18(%r15)
  401f91:	48 b8 73 74 20 68 65 	movabs $0x6564616568207473,%rax
  401f98:	61 64 65 
  401f9b:	49 89 47 20          	mov    %rax,0x20(%r15)
  401f9f:	48 b8 72 20 66 72 6f 	movabs $0x73206d6f72662072,%rax
  401fa6:	6d 20 73 
  401fa9:	49 89 47 28          	mov    %rax,0x28(%r15)
  401fad:	41 c7 47 30 65 72 76 	movl   $0x65767265,0x30(%r15)
  401fb4:	65 
  401fb5:	66 41 c7 47 34 72 00 	movw   $0x72,0x34(%r15)
  401fbc:	44 89 e7             	mov    %r12d,%edi
  401fbf:	e8 2c ec ff ff       	callq  400bf0 <close@plt>
  401fc4:	b8 ff ff ff ff       	mov    $0xffffffff,%eax
  401fc9:	e9 f6 01 00 00       	jmpq   4021c4 <submitr+0x6c9>
  401fce:	4c 8d 84 24 50 80 00 	lea    0x8050(%rsp),%r8
  401fd5:	00 
  401fd6:	48 8d 4c 24 2c       	lea    0x2c(%rsp),%rcx
  401fdb:	48 8d 94 24 50 60 00 	lea    0x6050(%rsp),%rdx
  401fe2:	00 
  401fe3:	be 07 30 40 00       	mov    $0x403007,%esi
  401fe8:	48 8d bc 24 50 20 00 	lea    0x2050(%rsp),%rdi
  401fef:	00 
  401ff0:	b8 00 00 00 00       	mov    $0x0,%eax
  401ff5:	e8 96 ec ff ff       	callq  400c90 <__isoc99_sscanf@plt>
  401ffa:	44 8b 44 24 2c       	mov    0x2c(%rsp),%r8d
  401fff:	41 81 f8 c8 00 00 00 	cmp    $0xc8,%r8d
  402006:	0f 84 be 00 00 00    	je     4020ca <submitr+0x5cf>
  40200c:	4c 8d 8c 24 50 80 00 	lea    0x8050(%rsp),%r9
  402013:	00 
  402014:	b9 58 2f 40 00       	mov    $0x402f58,%ecx
  402019:	48 c7 c2 ff ff ff ff 	mov    $0xffffffffffffffff,%rdx
  402020:	be 01 00 00 00       	mov    $0x1,%esi
  402025:	4c 89 ff             	mov    %r15,%rdi
  402028:	b8 00 00 00 00       	mov    $0x0,%eax
  40202d:	e8 ee ec ff ff       	callq  400d20 <__sprintf_chk@plt>
  402032:	44 89 e7             	mov    %r12d,%edi
  402035:	e8 b6 eb ff ff       	callq  400bf0 <close@plt>
  40203a:	b8 ff ff ff ff       	mov    $0xffffffff,%eax
  40203f:	e9 80 01 00 00       	jmpq   4021c4 <submitr+0x6c9>
  402044:	ba 00 20 00 00       	mov    $0x2000,%edx
  402049:	48 8d b4 24 50 20 00 	lea    0x2050(%rsp),%rsi
  402050:	00 
  402051:	48 8d 7c 24 40       	lea    0x40(%rsp),%rdi
  402056:	e8 ae f9 ff ff       	callq  401a09 <rio_readlineb>
  40205b:	48 85 c0             	test   %rax,%rax
  40205e:	7f 6a                	jg     4020ca <submitr+0x5cf>
  402060:	48 b8 45 72 72 6f 72 	movabs $0x43203a726f727245,%rax
  402067:	3a 20 43 
  40206a:	49 89 07             	mov    %rax,(%r15)
  40206d:	48 b8 6c 69 65 6e 74 	movabs $0x6e7520746e65696c,%rax
  402074:	20 75 6e 
  402077:	49 89 47 08          	mov    %rax,0x8(%r15)
  40207b:	48 b8 61 62 6c 65 20 	movabs $0x206f7420656c6261,%rax
  402082:	74 6f 20 
  402085:	49 89 47 10          	mov    %rax,0x10(%r15)
  402089:	48 b8 72 65 61 64 20 	movabs $0x6165682064616572,%rax
  402090:	68 65 61 
  402093:	49 89 47 18          	mov    %rax,0x18(%r15)
  402097:	48 b8 64 65 72 73 20 	movabs $0x6f72662073726564,%rax
  40209e:	66 72 6f 
  4020a1:	49 89 47 20          	mov    %rax,0x20(%r15)
  4020a5:	48 b8 6d 20 73 65 72 	movabs $0x726576726573206d,%rax
  4020ac:	76 65 72 
  4020af:	49 89 47 28          	mov    %rax,0x28(%r15)
  4020b3:	41 c6 47 30 00       	movb   $0x0,0x30(%r15)
  4020b8:	44 89 e7             	mov    %r12d,%edi
  4020bb:	e8 30 eb ff ff       	callq  400bf0 <close@plt>
  4020c0:	b8 ff ff ff ff       	mov    $0xffffffff,%eax
  4020c5:	e9 fa 00 00 00       	jmpq   4021c4 <submitr+0x6c9>
  4020ca:	80 bc 24 50 20 00 00 	cmpb   $0xd,0x2050(%rsp)
  4020d1:	0d 
  4020d2:	0f 85 6c ff ff ff    	jne    402044 <submitr+0x549>
  4020d8:	80 bc 24 51 20 00 00 	cmpb   $0xa,0x2051(%rsp)
  4020df:	0a 
  4020e0:	0f 85 5e ff ff ff    	jne    402044 <submitr+0x549>
  4020e6:	80 bc 24 52 20 00 00 	cmpb   $0x0,0x2052(%rsp)
  4020ed:	00 
  4020ee:	0f 85 50 ff ff ff    	jne    402044 <submitr+0x549>
  4020f4:	ba 00 20 00 00       	mov    $0x2000,%edx
  4020f9:	48 8d b4 24 50 20 00 	lea    0x2050(%rsp),%rsi
  402100:	00 
  402101:	48 8d 7c 24 40       	lea    0x40(%rsp),%rdi
  402106:	e8 fe f8 ff ff       	callq  401a09 <rio_readlineb>
  40210b:	48 85 c0             	test   %rax,%rax
  40210e:	7f 70                	jg     402180 <submitr+0x685>
  402110:	48 b8 45 72 72 6f 72 	movabs $0x43203a726f727245,%rax
  402117:	3a 20 43 
  40211a:	49 89 07             	mov    %rax,(%r15)
  40211d:	48 b8 6c 69 65 6e 74 	movabs $0x6e7520746e65696c,%rax
  402124:	20 75 6e 
  402127:	49 89 47 08          	mov    %rax,0x8(%r15)
  40212b:	48 b8 61 62 6c 65 20 	movabs $0x206f7420656c6261,%rax
  402132:	74 6f 20 
  402135:	49 89 47 10          	mov    %rax,0x10(%r15)
  402139:	48 b8 72 65 61 64 20 	movabs $0x6174732064616572,%rax
  402140:	73 74 61 
  402143:	49 89 47 18          	mov    %rax,0x18(%r15)
  402147:	48 b8 74 75 73 20 6d 	movabs $0x7373656d20737574,%rax
  40214e:	65 73 73 
  402151:	49 89 47 20          	mov    %rax,0x20(%r15)
  402155:	48 b8 61 67 65 20 66 	movabs $0x6d6f726620656761,%rax
  40215c:	72 6f 6d 
  40215f:	49 89 47 28          	mov    %rax,0x28(%r15)
  402163:	48 b8 20 73 65 72 76 	movabs $0x72657672657320,%rax
  40216a:	65 72 00 
  40216d:	49 89 47 30          	mov    %rax,0x30(%r15)
  402171:	44 89 e7             	mov    %r12d,%edi
  402174:	e8 77 ea ff ff       	callq  400bf0 <close@plt>
  402179:	b8 ff ff ff ff       	mov    $0xffffffff,%eax
  40217e:	eb 44                	jmp    4021c4 <submitr+0x6c9>
  402180:	48 8d b4 24 50 20 00 	lea    0x2050(%rsp),%rsi
  402187:	00 
  402188:	4c 89 ff             	mov    %r15,%rdi
  40218b:	e8 10 ea ff ff       	callq  400ba0 <strcpy@plt>
  402190:	44 89 e7             	mov    %r12d,%edi
  402193:	e8 58 ea ff ff       	callq  400bf0 <close@plt>
  402198:	41 0f b6 17          	movzbl (%r15),%edx
  40219c:	b8 4f 00 00 00       	mov    $0x4f,%eax
  4021a1:	29 d0                	sub    %edx,%eax
  4021a3:	75 15                	jne    4021ba <submitr+0x6bf>
  4021a5:	41 0f b6 57 01       	movzbl 0x1(%r15),%edx
  4021aa:	b8 4b 00 00 00       	mov    $0x4b,%eax
  4021af:	29 d0                	sub    %edx,%eax
  4021b1:	75 07                	jne    4021ba <submitr+0x6bf>
  4021b3:	41 0f b6 47 02       	movzbl 0x2(%r15),%eax
  4021b8:	f7 d8                	neg    %eax
  4021ba:	85 c0                	test   %eax,%eax
  4021bc:	0f 95 c0             	setne  %al
  4021bf:	0f b6 c0             	movzbl %al,%eax
  4021c2:	f7 d8                	neg    %eax
  4021c4:	48 8b 8c 24 58 a0 00 	mov    0xa058(%rsp),%rcx
  4021cb:	00 
  4021cc:	64 48 33 0c 25 28 00 	xor    %fs:0x28,%rcx
  4021d3:	00 00 
  4021d5:	0f 84 0a 01 00 00    	je     4022e5 <submitr+0x7ea>
  4021db:	e9 00 01 00 00       	jmpq   4022e0 <submitr+0x7e5>
  4021e0:	48 b8 45 72 72 6f 72 	movabs $0x52203a726f727245,%rax
  4021e7:	3a 20 52 
  4021ea:	49 89 07             	mov    %rax,(%r15)
  4021ed:	48 b8 65 73 75 6c 74 	movabs $0x747320746c757365,%rax
  4021f4:	20 73 74 
  4021f7:	49 89 47 08          	mov    %rax,0x8(%r15)
  4021fb:	48 b8 72 69 6e 67 20 	movabs $0x6e6f6320676e6972,%rax
  402202:	63 6f 6e 
  402205:	49 89 47 10          	mov    %rax,0x10(%r15)
  402209:	48 b8 74 61 69 6e 73 	movabs $0x6e6120736e696174,%rax
  402210:	20 61 6e 
  402213:	49 89 47 18          	mov    %rax,0x18(%r15)
  402217:	48 b8 20 69 6c 6c 65 	movabs $0x6c6167656c6c6920,%rax
  40221e:	67 61 6c 
  402221:	49 89 47 20          	mov    %rax,0x20(%r15)
  402225:	48 b8 20 6f 72 20 75 	movabs $0x72706e7520726f20,%rax
  40222c:	6e 70 72 
  40222f:	49 89 47 28          	mov    %rax,0x28(%r15)
  402233:	48 b8 69 6e 74 61 62 	movabs $0x20656c6261746e69,%rax
  40223a:	6c 65 20 
  40223d:	49 89 47 30          	mov    %rax,0x30(%r15)
  402241:	48 b8 63 68 61 72 61 	movabs $0x6574636172616863,%rax
  402248:	63 74 65 
  40224b:	49 89 47 38          	mov    %rax,0x38(%r15)
  40224f:	66 41 c7 47 40 72 2e 	movw   $0x2e72,0x40(%r15)
  402256:	41 c6 47 42 00       	movb   $0x0,0x42(%r15)
  40225b:	44 89 e7             	mov    %r12d,%edi
  40225e:	e8 8d e9 ff ff       	callq  400bf0 <close@plt>
  402263:	b8 ff ff ff ff       	mov    $0xffffffff,%eax
  402268:	e9 57 ff ff ff       	jmpq   4021c4 <submitr+0x6c9>
  40226d:	48 8d 9c 24 50 20 00 	lea    0x2050(%rsp),%rbx
  402274:	00 
  402275:	48 8d 84 24 50 40 00 	lea    0x4050(%rsp),%rax
  40227c:	00 
  40227d:	50                   	push   %rax
  40227e:	ff 74 24 20          	pushq  0x20(%rsp)
  402282:	4c 8b 4c 24 20       	mov    0x20(%rsp),%r9
  402287:	4c 8b 44 24 18       	mov    0x18(%rsp),%r8
  40228c:	b9 88 2f 40 00       	mov    $0x402f88,%ecx
  402291:	ba 00 20 00 00       	mov    $0x2000,%edx
  402296:	be 01 00 00 00       	mov    $0x1,%esi
  40229b:	48 89 df             	mov    %rbx,%rdi
  40229e:	b8 00 00 00 00       	mov    $0x0,%eax
  4022a3:	e8 78 ea ff ff       	callq  400d20 <__sprintf_chk@plt>
  4022a8:	b8 00 00 00 00       	mov    $0x0,%eax
  4022ad:	48 c7 c1 ff ff ff ff 	mov    $0xffffffffffffffff,%rcx
  4022b4:	48 89 df             	mov    %rbx,%rdi
  4022b7:	f2 ae                	repnz scas %es:(%rdi),%al
  4022b9:	48 89 c8             	mov    %rcx,%rax
  4022bc:	48 f7 d0             	not    %rax
  4022bf:	4c 8d 68 ff          	lea    -0x1(%rax),%r13
  4022c3:	48 83 c4 10          	add    $0x10,%rsp
  4022c7:	4c 89 eb             	mov    %r13,%rbx
  4022ca:	48 8d ac 24 50 20 00 	lea    0x2050(%rsp),%rbp
  4022d1:	00 
  4022d2:	4d 85 ed             	test   %r13,%r13
  4022d5:	0f 85 be fb ff ff    	jne    401e99 <submitr+0x39e>
  4022db:	e9 47 fc ff ff       	jmpq   401f27 <submitr+0x42c>
  4022e0:	e8 eb e8 ff ff       	callq  400bd0 <__stack_chk_fail@plt>
  4022e5:	48 81 c4 68 a0 00 00 	add    $0xa068,%rsp
  4022ec:	5b                   	pop    %rbx
  4022ed:	5d                   	pop    %rbp
  4022ee:	41 5c                	pop    %r12
  4022f0:	41 5d                	pop    %r13
  4022f2:	41 5e                	pop    %r14
  4022f4:	41 5f                	pop    %r15
  4022f6:	c3                   	retq   

00000000004022f7 <init_timeout>:
  4022f7:	85 ff                	test   %edi,%edi
  4022f9:	74 22                	je     40231d <init_timeout+0x26>
  4022fb:	53                   	push   %rbx
  4022fc:	89 fb                	mov    %edi,%ebx
  4022fe:	be db 19 40 00       	mov    $0x4019db,%esi
  402303:	bf 0e 00 00 00       	mov    $0xe,%edi
  402308:	e8 23 e9 ff ff       	callq  400c30 <signal@plt>
  40230d:	85 db                	test   %ebx,%ebx
  40230f:	bf 00 00 00 00       	mov    $0x0,%edi
  402314:	0f 49 fb             	cmovns %ebx,%edi
  402317:	e8 c4 e8 ff ff       	callq  400be0 <alarm@plt>
  40231c:	5b                   	pop    %rbx
  40231d:	f3 c3                	repz retq 

000000000040231f <init_driver>:
  40231f:	55                   	push   %rbp
  402320:	53                   	push   %rbx
  402321:	48 83 ec 28          	sub    $0x28,%rsp
  402325:	48 89 fd             	mov    %rdi,%rbp
  402328:	64 48 8b 04 25 28 00 	mov    %fs:0x28,%rax
  40232f:	00 00 
  402331:	48 89 44 24 18       	mov    %rax,0x18(%rsp)
  402336:	31 c0                	xor    %eax,%eax
  402338:	be 01 00 00 00       	mov    $0x1,%esi
  40233d:	bf 0d 00 00 00       	mov    $0xd,%edi
  402342:	e8 e9 e8 ff ff       	callq  400c30 <signal@plt>
  402347:	be 01 00 00 00       	mov    $0x1,%esi
  40234c:	bf 1d 00 00 00       	mov    $0x1d,%edi
  402351:	e8 da e8 ff ff       	callq  400c30 <signal@plt>
  402356:	be 01 00 00 00       	mov    $0x1,%esi
  40235b:	bf 1d 00 00 00       	mov    $0x1d,%edi
  402360:	e8 cb e8 ff ff       	callq  400c30 <signal@plt>
  402365:	ba 00 00 00 00       	mov    $0x0,%edx
  40236a:	be 01 00 00 00       	mov    $0x1,%esi
  40236f:	bf 02 00 00 00       	mov    $0x2,%edi
  402374:	e8 b7 e9 ff ff       	callq  400d30 <socket@plt>
  402379:	85 c0                	test   %eax,%eax
  40237b:	79 4f                	jns    4023cc <init_driver+0xad>
  40237d:	48 b8 45 72 72 6f 72 	movabs $0x43203a726f727245,%rax
  402384:	3a 20 43 
  402387:	48 89 45 00          	mov    %rax,0x0(%rbp)
  40238b:	48 b8 6c 69 65 6e 74 	movabs $0x6e7520746e65696c,%rax
  402392:	20 75 6e 
  402395:	48 89 45 08          	mov    %rax,0x8(%rbp)
  402399:	48 b8 61 62 6c 65 20 	movabs $0x206f7420656c6261,%rax
  4023a0:	74 6f 20 
  4023a3:	48 89 45 10          	mov    %rax,0x10(%rbp)
  4023a7:	48 b8 63 72 65 61 74 	movabs $0x7320657461657263,%rax
  4023ae:	65 20 73 
  4023b1:	48 89 45 18          	mov    %rax,0x18(%rbp)
  4023b5:	c7 45 20 6f 63 6b 65 	movl   $0x656b636f,0x20(%rbp)
  4023bc:	66 c7 45 24 74 00    	movw   $0x74,0x24(%rbp)
  4023c2:	b8 ff ff ff ff       	mov    $0xffffffff,%eax
  4023c7:	e9 0c 01 00 00       	jmpq   4024d8 <init_driver+0x1b9>
  4023cc:	89 c3                	mov    %eax,%ebx
  4023ce:	bf 15 2f 40 00       	mov    $0x402f15,%edi
  4023d3:	e8 68 e8 ff ff       	callq  400c40 <gethostbyname@plt>
  4023d8:	48 85 c0             	test   %rax,%rax
  4023db:	75 68                	jne    402445 <init_driver+0x126>
  4023dd:	48 b8 45 72 72 6f 72 	movabs $0x44203a726f727245,%rax
  4023e4:	3a 20 44 
  4023e7:	48 89 45 00          	mov    %rax,0x0(%rbp)
  4023eb:	48 b8 4e 53 20 69 73 	movabs $0x6e7520736920534e,%rax
  4023f2:	20 75 6e 
  4023f5:	48 89 45 08          	mov    %rax,0x8(%rbp)
  4023f9:	48 b8 61 62 6c 65 20 	movabs $0x206f7420656c6261,%rax
  402400:	74 6f 20 
  402403:	48 89 45 10          	mov    %rax,0x10(%rbp)
  402407:	48 b8 72 65 73 6f 6c 	movabs $0x2065766c6f736572,%rax
  40240e:	76 65 20 
  402411:	48 89 45 18          	mov    %rax,0x18(%rbp)
  402415:	48 b8 73 65 72 76 65 	movabs $0x6120726576726573,%rax
  40241c:	72 20 61 
  40241f:	48 89 45 20          	mov    %rax,0x20(%rbp)
  402423:	c7 45 28 64 64 72 65 	movl   $0x65726464,0x28(%rbp)
  40242a:	66 c7 45 2c 73 73    	movw   $0x7373,0x2c(%rbp)
  402430:	c6 45 2e 00          	movb   $0x0,0x2e(%rbp)
  402434:	89 df                	mov    %ebx,%edi
  402436:	e8 b5 e7 ff ff       	callq  400bf0 <close@plt>
  40243b:	b8 ff ff ff ff       	mov    $0xffffffff,%eax
  402440:	e9 93 00 00 00       	jmpq   4024d8 <init_driver+0x1b9>
  402445:	48 c7 04 24 00 00 00 	movq   $0x0,(%rsp)
  40244c:	00 
  40244d:	48 c7 44 24 08 00 00 	movq   $0x0,0x8(%rsp)
  402454:	00 00 
  402456:	66 c7 04 24 02 00    	movw   $0x2,(%rsp)
  40245c:	48 63 50 14          	movslq 0x14(%rax),%rdx
  402460:	48 8b 40 18          	mov    0x18(%rax),%rax
  402464:	48 8d 7c 24 04       	lea    0x4(%rsp),%rdi
  402469:	b9 0c 00 00 00       	mov    $0xc,%ecx
  40246e:	48 8b 30             	mov    (%rax),%rsi
  402471:	e8 da e7 ff ff       	callq  400c50 <__memmove_chk@plt>
  402476:	66 c7 44 24 02 4b 01 	movw   $0x14b,0x2(%rsp)
  40247d:	ba 10 00 00 00       	mov    $0x10,%edx
  402482:	48 89 e6             	mov    %rsp,%rsi
  402485:	89 df                	mov    %ebx,%edi
  402487:	e8 54 e8 ff ff       	callq  400ce0 <connect@plt>
  40248c:	85 c0                	test   %eax,%eax
  40248e:	79 32                	jns    4024c2 <init_driver+0x1a3>
  402490:	41 b8 15 2f 40 00    	mov    $0x402f15,%r8d
  402496:	b9 d8 2f 40 00       	mov    $0x402fd8,%ecx
  40249b:	48 c7 c2 ff ff ff ff 	mov    $0xffffffffffffffff,%rdx
  4024a2:	be 01 00 00 00       	mov    $0x1,%esi
  4024a7:	48 89 ef             	mov    %rbp,%rdi
  4024aa:	b8 00 00 00 00       	mov    $0x0,%eax
  4024af:	e8 6c e8 ff ff       	callq  400d20 <__sprintf_chk@plt>
  4024b4:	89 df                	mov    %ebx,%edi
  4024b6:	e8 35 e7 ff ff       	callq  400bf0 <close@plt>
  4024bb:	b8 ff ff ff ff       	mov    $0xffffffff,%eax
  4024c0:	eb 16                	jmp    4024d8 <init_driver+0x1b9>
  4024c2:	89 df                	mov    %ebx,%edi
  4024c4:	e8 27 e7 ff ff       	callq  400bf0 <close@plt>
  4024c9:	66 c7 45 00 4f 4b    	movw   $0x4b4f,0x0(%rbp)
  4024cf:	c6 45 02 00          	movb   $0x0,0x2(%rbp)
  4024d3:	b8 00 00 00 00       	mov    $0x0,%eax
  4024d8:	48 8b 4c 24 18       	mov    0x18(%rsp),%rcx
  4024dd:	64 48 33 0c 25 28 00 	xor    %fs:0x28,%rcx
  4024e4:	00 00 
  4024e6:	74 05                	je     4024ed <init_driver+0x1ce>
  4024e8:	e8 e3 e6 ff ff       	callq  400bd0 <__stack_chk_fail@plt>
  4024ed:	48 83 c4 28          	add    $0x28,%rsp
  4024f1:	5b                   	pop    %rbx
  4024f2:	5d                   	pop    %rbp
  4024f3:	c3                   	retq   

00000000004024f4 <driver_post>:
  4024f4:	53                   	push   %rbx
  4024f5:	48 89 cb             	mov    %rcx,%rbx
  4024f8:	85 d2                	test   %edx,%edx
  4024fa:	74 27                	je     402523 <driver_post+0x2f>
  4024fc:	48 89 f2             	mov    %rsi,%rdx
  4024ff:	be 18 30 40 00       	mov    $0x403018,%esi
  402504:	bf 01 00 00 00       	mov    $0x1,%edi
  402509:	b8 00 00 00 00       	mov    $0x0,%eax
  40250e:	e8 8d e7 ff ff       	callq  400ca0 <__printf_chk@plt>
  402513:	66 c7 03 4f 4b       	movw   $0x4b4f,(%rbx)
  402518:	c6 43 02 00          	movb   $0x0,0x2(%rbx)
  40251c:	b8 00 00 00 00       	mov    $0x0,%eax
  402521:	eb 43                	jmp    402566 <driver_post+0x72>
  402523:	48 85 ff             	test   %rdi,%rdi
  402526:	74 30                	je     402558 <driver_post+0x64>
  402528:	80 3f 00             	cmpb   $0x0,(%rdi)
  40252b:	74 2b                	je     402558 <driver_post+0x64>
  40252d:	48 83 ec 08          	sub    $0x8,%rsp
  402531:	51                   	push   %rcx
  402532:	49 89 f1             	mov    %rsi,%r9
  402535:	41 b8 2f 30 40 00    	mov    $0x40302f,%r8d
  40253b:	48 89 f9             	mov    %rdi,%rcx
  40253e:	ba 45 30 40 00       	mov    $0x403045,%edx
  402543:	be 01 4b 00 00       	mov    $0x4b01,%esi
  402548:	bf 15 2f 40 00       	mov    $0x402f15,%edi
  40254d:	e8 a9 f5 ff ff       	callq  401afb <submitr>
  402552:	48 83 c4 10          	add    $0x10,%rsp
  402556:	eb 0e                	jmp    402566 <driver_post+0x72>
  402558:	66 c7 03 4f 4b       	movw   $0x4b4f,(%rbx)
  40255d:	c6 43 02 00          	movb   $0x0,0x2(%rbx)
  402561:	b8 00 00 00 00       	mov    $0x0,%eax
  402566:	5b                   	pop    %rbx
  402567:	c3                   	retq   
  402568:	0f 1f 84 00 00 00 00 	nopl   0x0(%rax,%rax,1)
  40256f:	00 

0000000000402570 <__libc_csu_init>:
  402570:	41 57                	push   %r15
  402572:	41 56                	push   %r14
  402574:	41 89 ff             	mov    %edi,%r15d
  402577:	41 55                	push   %r13
  402579:	41 54                	push   %r12
  40257b:	4c 8d 25 8e 18 20 00 	lea    0x20188e(%rip),%r12        # 603e10 <__frame_dummy_init_array_entry>
  402582:	55                   	push   %rbp
  402583:	48 8d 2d 8e 18 20 00 	lea    0x20188e(%rip),%rbp        # 603e18 <__init_array_end>
  40258a:	53                   	push   %rbx
  40258b:	49 89 f6             	mov    %rsi,%r14
  40258e:	49 89 d5             	mov    %rdx,%r13
  402591:	4c 29 e5             	sub    %r12,%rbp
  402594:	48 83 ec 08          	sub    $0x8,%rsp
  402598:	48 c1 fd 03          	sar    $0x3,%rbp
  40259c:	e8 97 e5 ff ff       	callq  400b38 <_init>
  4025a1:	48 85 ed             	test   %rbp,%rbp
  4025a4:	74 20                	je     4025c6 <__libc_csu_init+0x56>
  4025a6:	31 db                	xor    %ebx,%ebx
  4025a8:	0f 1f 84 00 00 00 00 	nopl   0x0(%rax,%rax,1)
  4025af:	00 
  4025b0:	4c 89 ea             	mov    %r13,%rdx
  4025b3:	4c 89 f6             	mov    %r14,%rsi
  4025b6:	44 89 ff             	mov    %r15d,%edi
  4025b9:	41 ff 14 dc          	callq  *(%r12,%rbx,8)
  4025bd:	48 83 c3 01          	add    $0x1,%rbx
  4025c1:	48 39 eb             	cmp    %rbp,%rbx
  4025c4:	75 ea                	jne    4025b0 <__libc_csu_init+0x40>
  4025c6:	48 83 c4 08          	add    $0x8,%rsp
  4025ca:	5b                   	pop    %rbx
  4025cb:	5d                   	pop    %rbp
  4025cc:	41 5c                	pop    %r12
  4025ce:	41 5d                	pop    %r13
  4025d0:	41 5e                	pop    %r14
  4025d2:	41 5f                	pop    %r15
  4025d4:	c3                   	retq   
  4025d5:	90                   	nop
  4025d6:	66 2e 0f 1f 84 00 00 	nopw   %cs:0x0(%rax,%rax,1)
  4025dd:	00 00 00 

00000000004025e0 <__libc_csu_fini>:
  4025e0:	f3 c3                	repz retq 

Disassembly of section .fini:

00000000004025e4 <_fini>:
  4025e4:	48 83 ec 08          	sub    $0x8,%rsp
  4025e8:	48 83 c4 08          	add    $0x8,%rsp
  4025ec:	c3                   	retq   
